
Drivers.elf:     file format elf32-littlearm

Sections:
Idx Name          Size      VMA       LMA       File off  Algn
  0 .isr_vector   00000130  08000000  08000000  00010000  2**0
                  CONTENTS, ALLOC, LOAD, READONLY, DATA
  1 .text         00000b9c  08000130  08000130  00010130  2**2
                  CONTENTS, ALLOC, LOAD, READONLY, CODE
  2 .rodata       00000048  08000ccc  08000ccc  00010ccc  2**2
                  CONTENTS, ALLOC, LOAD, READONLY, DATA
  3 .ARM.extab    00000000  08000d14  08000d14  00010d1c  2**0
                  CONTENTS
  4 .ARM          00000000  08000d14  08000d14  00010d1c  2**0
                  CONTENTS
  5 .preinit_array 00000000  08000d14  08000d1c  00010d1c  2**0
                  CONTENTS, ALLOC, LOAD, DATA
  6 .init_array   00000004  08000d14  08000d14  00010d14  2**2
                  CONTENTS, ALLOC, LOAD, DATA
  7 .fini_array   00000004  08000d18  08000d18  00010d18  2**2
                  CONTENTS, ALLOC, LOAD, DATA
  8 .data         00000000  20000000  20000000  00010d1c  2**0
                  CONTENTS, ALLOC, LOAD, DATA
  9 .bss          00000064  20000000  08000d1c  00020000  2**2
                  ALLOC
 10 ._user_heap_stack 00000604  20000064  08000d1c  00020064  2**0
                  ALLOC
 11 .ARM.attributes 00000029  00000000  00000000  00010d1c  2**0
                  CONTENTS, READONLY
 12 .debug_info   0000346a  00000000  00000000  00010d45  2**0
                  CONTENTS, READONLY, DEBUGGING
 13 .debug_abbrev 00000860  00000000  00000000  000141af  2**0
                  CONTENTS, READONLY, DEBUGGING
 14 .debug_loc    00000a3a  00000000  00000000  00014a0f  2**0
                  CONTENTS, READONLY, DEBUGGING
 15 .debug_aranges 000001a8  00000000  00000000  00015450  2**3
                  CONTENTS, READONLY, DEBUGGING
 16 .debug_ranges 00000160  00000000  00000000  000155f8  2**3
                  CONTENTS, READONLY, DEBUGGING
 17 .debug_macro  00001ade  00000000  00000000  00015758  2**0
                  CONTENTS, READONLY, DEBUGGING
 18 .debug_line   00001acc  00000000  00000000  00017236  2**0
                  CONTENTS, READONLY, DEBUGGING
 19 .debug_str    00009395  00000000  00000000  00018d02  2**0
                  CONTENTS, READONLY, DEBUGGING
 20 .comment      0000007b  00000000  00000000  00022097  2**0
                  CONTENTS, READONLY
 21 .debug_frame  00000558  00000000  00000000  00022114  2**2
                  CONTENTS, READONLY, DEBUGGING

Disassembly of section .text:

08000130 <__do_global_dtors_aux>:
 8000130:	b510      	push	{r4, lr}
 8000132:	4c05      	ldr	r4, [pc, #20]	; (8000148 <__do_global_dtors_aux+0x18>)
 8000134:	7823      	ldrb	r3, [r4, #0]
 8000136:	b933      	cbnz	r3, 8000146 <__do_global_dtors_aux+0x16>
 8000138:	4b04      	ldr	r3, [pc, #16]	; (800014c <__do_global_dtors_aux+0x1c>)
 800013a:	b113      	cbz	r3, 8000142 <__do_global_dtors_aux+0x12>
 800013c:	4804      	ldr	r0, [pc, #16]	; (8000150 <__do_global_dtors_aux+0x20>)
 800013e:	f3af 8000 	nop.w
 8000142:	2301      	movs	r3, #1
 8000144:	7023      	strb	r3, [r4, #0]
 8000146:	bd10      	pop	{r4, pc}
 8000148:	20000000 	.word	0x20000000
 800014c:	00000000 	.word	0x00000000
 8000150:	08000cb4 	.word	0x08000cb4

08000154 <frame_dummy>:
 8000154:	b508      	push	{r3, lr}
 8000156:	4b03      	ldr	r3, [pc, #12]	; (8000164 <frame_dummy+0x10>)
 8000158:	b11b      	cbz	r3, 8000162 <frame_dummy+0xe>
 800015a:	4903      	ldr	r1, [pc, #12]	; (8000168 <frame_dummy+0x14>)
 800015c:	4803      	ldr	r0, [pc, #12]	; (800016c <frame_dummy+0x18>)
 800015e:	f3af 8000 	nop.w
 8000162:	bd08      	pop	{r3, pc}
 8000164:	00000000 	.word	0x00000000
 8000168:	20000004 	.word	0x20000004
 800016c:	08000cb4 	.word	0x08000cb4

08000170 <delay_ms>:
 */

#include "lcd.h"


void delay_ms(uint32_t time){
 8000170:	b480      	push	{r7}
 8000172:	b085      	sub	sp, #20
 8000174:	af00      	add	r7, sp, #0
 8000176:	6078      	str	r0, [r7, #4]
	uint32_t i,j;
	for(i=0;i<time;i++)
 8000178:	2300      	movs	r3, #0
 800017a:	60fb      	str	r3, [r7, #12]
 800017c:	e00b      	b.n	8000196 <delay_ms+0x26>
		for(j=0;j<255;j++);
 800017e:	2300      	movs	r3, #0
 8000180:	60bb      	str	r3, [r7, #8]
 8000182:	e002      	b.n	800018a <delay_ms+0x1a>
 8000184:	68bb      	ldr	r3, [r7, #8]
 8000186:	3301      	adds	r3, #1
 8000188:	60bb      	str	r3, [r7, #8]
 800018a:	68bb      	ldr	r3, [r7, #8]
 800018c:	2bfe      	cmp	r3, #254	; 0xfe
 800018e:	d9f9      	bls.n	8000184 <delay_ms+0x14>
	for(i=0;i<time;i++)
 8000190:	68fb      	ldr	r3, [r7, #12]
 8000192:	3301      	adds	r3, #1
 8000194:	60fb      	str	r3, [r7, #12]
 8000196:	68fa      	ldr	r2, [r7, #12]
 8000198:	687b      	ldr	r3, [r7, #4]
 800019a:	429a      	cmp	r2, r3
 800019c:	d3ef      	bcc.n	800017e <delay_ms+0xe>
}
 800019e:	bf00      	nop
 80001a0:	3714      	adds	r7, #20
 80001a2:	46bd      	mov	sp, r7
 80001a4:	bc80      	pop	{r7}
 80001a6:	4770      	bx	lr

080001a8 <LCD_KICK>:

void LCD_KICK(){
 80001a8:	b580      	push	{r7, lr}
 80001aa:	af00      	add	r7, sp, #0
	MCAL_GPIO_WritePin(LCD_CTRL,EN_SWITCH ,GPIO_PIN_SET );
 80001ac:	2201      	movs	r2, #1
 80001ae:	f44f 6180 	mov.w	r1, #1024	; 0x400
 80001b2:	4807      	ldr	r0, [pc, #28]	; (80001d0 <LCD_KICK+0x28>)
 80001b4:	f000 fd34 	bl	8000c20 <MCAL_GPIO_WritePin>
	delay_ms(50);
 80001b8:	2032      	movs	r0, #50	; 0x32
 80001ba:	f7ff ffd9 	bl	8000170 <delay_ms>
	MCAL_GPIO_WritePin(LCD_CTRL,EN_SWITCH ,GPIO_PIN_RESET );
 80001be:	2200      	movs	r2, #0
 80001c0:	f44f 6180 	mov.w	r1, #1024	; 0x400
 80001c4:	4802      	ldr	r0, [pc, #8]	; (80001d0 <LCD_KICK+0x28>)
 80001c6:	f000 fd2b 	bl	8000c20 <MCAL_GPIO_WritePin>

}
 80001ca:	bf00      	nop
 80001cc:	bd80      	pop	{r7, pc}
 80001ce:	bf00      	nop
 80001d0:	40010800 	.word	0x40010800

080001d4 <LCD_INIT>:


void LCD_INIT(){
 80001d4:	b580      	push	{r7, lr}
 80001d6:	af00      	add	r7, sp, #0

	delay_ms(20);
 80001d8:	2014      	movs	r0, #20
 80001da:	f7ff ffc9 	bl	8000170 <delay_ms>
	PINCFG.GPIO_PinNumber= RS_SWITCH;
 80001de:	4b18      	ldr	r3, [pc, #96]	; (8000240 <LCD_INIT+0x6c>)
 80001e0:	f44f 7280 	mov.w	r2, #256	; 0x100
 80001e4:	801a      	strh	r2, [r3, #0]
	PINCFG.GPIO_MODE =GPIO_MODE_OUTPUT_PP;
 80001e6:	4b16      	ldr	r3, [pc, #88]	; (8000240 <LCD_INIT+0x6c>)
 80001e8:	2204      	movs	r2, #4
 80001ea:	709a      	strb	r2, [r3, #2]
	PINCFG.GPIO_OUTPUT_SPEED=GPIO_SPEED_10M;
 80001ec:	4b14      	ldr	r3, [pc, #80]	; (8000240 <LCD_INIT+0x6c>)
 80001ee:	2201      	movs	r2, #1
 80001f0:	70da      	strb	r2, [r3, #3]
	MCAL_GPIO_Init_Port_Range(LCD_CTRL, &PINCFG, 3);
 80001f2:	2203      	movs	r2, #3
 80001f4:	4912      	ldr	r1, [pc, #72]	; (8000240 <LCD_INIT+0x6c>)
 80001f6:	4813      	ldr	r0, [pc, #76]	; (8000244 <LCD_INIT+0x70>)
 80001f8:	f000 fcc0 	bl	8000b7c <MCAL_GPIO_Init_Port_Range>

	delay_ms(15);
 80001fc:	200f      	movs	r0, #15
 80001fe:	f7ff ffb7 	bl	8000170 <delay_ms>

	PINCFG.GPIO_PinNumber = GPIO_PIN_0;
 8000202:	4b0f      	ldr	r3, [pc, #60]	; (8000240 <LCD_INIT+0x6c>)
 8000204:	2201      	movs	r2, #1
 8000206:	801a      	strh	r2, [r3, #0]
	PINCFG.GPIO_MODE = GPIO_MODE_OUTPUT_PP;
 8000208:	4b0d      	ldr	r3, [pc, #52]	; (8000240 <LCD_INIT+0x6c>)
 800020a:	2204      	movs	r2, #4
 800020c:	709a      	strb	r2, [r3, #2]
	PINCFG.GPIO_OUTPUT_SPEED = GPIO_SPEED_10M;
 800020e:	4b0c      	ldr	r3, [pc, #48]	; (8000240 <LCD_INIT+0x6c>)
 8000210:	2201      	movs	r2, #1
 8000212:	70da      	strb	r2, [r3, #3]
	MCAL_GPIO_Init_Port_Range(LCD_Port, &PINCFG, 8);
 8000214:	2208      	movs	r2, #8
 8000216:	490a      	ldr	r1, [pc, #40]	; (8000240 <LCD_INIT+0x6c>)
 8000218:	480a      	ldr	r0, [pc, #40]	; (8000244 <LCD_INIT+0x70>)
 800021a:	f000 fcaf 	bl	8000b7c <MCAL_GPIO_Init_Port_Range>





	LCD_clear_screen();
 800021e:	f000 f8bd 	bl	800039c <LCD_clear_screen>
	LCD_WRITE_COMMAND(LCD_FUNCTION_8BITS_2LINES);
 8000222:	2038      	movs	r0, #56	; 0x38
 8000224:	f000 f810 	bl	8000248 <LCD_WRITE_COMMAND>
	LCD_WRITE_COMMAND(LCD_ENTRY_MODE);
 8000228:	2006      	movs	r0, #6
 800022a:	f000 f80d 	bl	8000248 <LCD_WRITE_COMMAND>
	LCD_WRITE_COMMAND(LCD_BEGIN_AT_FIRST_ROW);
 800022e:	2080      	movs	r0, #128	; 0x80
 8000230:	f000 f80a 	bl	8000248 <LCD_WRITE_COMMAND>
	LCD_WRITE_COMMAND(LCD_DISP_ON_BLINK);
 8000234:	200d      	movs	r0, #13
 8000236:	f000 f807 	bl	8000248 <LCD_WRITE_COMMAND>
}
 800023a:	bf00      	nop
 800023c:	bd80      	pop	{r7, pc}
 800023e:	bf00      	nop
 8000240:	2000001c 	.word	0x2000001c
 8000244:	40010800 	.word	0x40010800

08000248 <LCD_WRITE_COMMAND>:
void LCD_WRITE_COMMAND(unsigned char command){
 8000248:	b580      	push	{r7, lr}
 800024a:	b082      	sub	sp, #8
 800024c:	af00      	add	r7, sp, #0
 800024e:	4603      	mov	r3, r0
 8000250:	71fb      	strb	r3, [r7, #7]
	LCD_CHECK_LCD_ISBUSY();
 8000252:	f000 f86d 	bl	8000330 <LCD_CHECK_LCD_ISBUSY>
	MCAL_GPIO_WritePort(LCD_Port, command);
 8000256:	79fb      	ldrb	r3, [r7, #7]
 8000258:	b29b      	uxth	r3, r3
 800025a:	4619      	mov	r1, r3
 800025c:	480b      	ldr	r0, [pc, #44]	; (800028c <LCD_WRITE_COMMAND+0x44>)
 800025e:	f000 fcf6 	bl	8000c4e <MCAL_GPIO_WritePort>
	MCAL_GPIO_WritePin(LCD_CTRL, RS_SWITCH, GPIO_PIN_RESET);
 8000262:	2200      	movs	r2, #0
 8000264:	f44f 7180 	mov.w	r1, #256	; 0x100
 8000268:	4808      	ldr	r0, [pc, #32]	; (800028c <LCD_WRITE_COMMAND+0x44>)
 800026a:	f000 fcd9 	bl	8000c20 <MCAL_GPIO_WritePin>
	MCAL_GPIO_WritePin(LCD_CTRL, RW_SWITCH, GPIO_PIN_RESET);
 800026e:	2200      	movs	r2, #0
 8000270:	f44f 7100 	mov.w	r1, #512	; 0x200
 8000274:	4805      	ldr	r0, [pc, #20]	; (800028c <LCD_WRITE_COMMAND+0x44>)
 8000276:	f000 fcd3 	bl	8000c20 <MCAL_GPIO_WritePin>
	delay_ms(1);
 800027a:	2001      	movs	r0, #1
 800027c:	f7ff ff78 	bl	8000170 <delay_ms>
	LCD_KICK();
 8000280:	f7ff ff92 	bl	80001a8 <LCD_KICK>
}
 8000284:	bf00      	nop
 8000286:	3708      	adds	r7, #8
 8000288:	46bd      	mov	sp, r7
 800028a:	bd80      	pop	{r7, pc}
 800028c:	40010800 	.word	0x40010800

08000290 <LCD_WRITE_CHAR>:

void LCD_WRITE_CHAR(unsigned char character){
 8000290:	b580      	push	{r7, lr}
 8000292:	b082      	sub	sp, #8
 8000294:	af00      	add	r7, sp, #0
 8000296:	4603      	mov	r3, r0
 8000298:	71fb      	strb	r3, [r7, #7]
	LCD_CHECK_LCD_ISBUSY();
 800029a:	f000 f849 	bl	8000330 <LCD_CHECK_LCD_ISBUSY>
	MCAL_GPIO_WritePort(LCD_Port, character);
 800029e:	79fb      	ldrb	r3, [r7, #7]
 80002a0:	b29b      	uxth	r3, r3
 80002a2:	4619      	mov	r1, r3
 80002a4:	480b      	ldr	r0, [pc, #44]	; (80002d4 <LCD_WRITE_CHAR+0x44>)
 80002a6:	f000 fcd2 	bl	8000c4e <MCAL_GPIO_WritePort>
	MCAL_GPIO_WritePin(LCD_CTRL, RW_SWITCH, GPIO_PIN_RESET);
 80002aa:	2200      	movs	r2, #0
 80002ac:	f44f 7100 	mov.w	r1, #512	; 0x200
 80002b0:	4808      	ldr	r0, [pc, #32]	; (80002d4 <LCD_WRITE_CHAR+0x44>)
 80002b2:	f000 fcb5 	bl	8000c20 <MCAL_GPIO_WritePin>
	MCAL_GPIO_WritePin(LCD_CTRL, RS_SWITCH, GPIO_PIN_SET);
 80002b6:	2201      	movs	r2, #1
 80002b8:	f44f 7180 	mov.w	r1, #256	; 0x100
 80002bc:	4805      	ldr	r0, [pc, #20]	; (80002d4 <LCD_WRITE_CHAR+0x44>)
 80002be:	f000 fcaf 	bl	8000c20 <MCAL_GPIO_WritePin>
	delay_ms(1);
 80002c2:	2001      	movs	r0, #1
 80002c4:	f7ff ff54 	bl	8000170 <delay_ms>
	LCD_KICK();
 80002c8:	f7ff ff6e 	bl	80001a8 <LCD_KICK>
}
 80002cc:	bf00      	nop
 80002ce:	3708      	adds	r7, #8
 80002d0:	46bd      	mov	sp, r7
 80002d2:	bd80      	pop	{r7, pc}
 80002d4:	40010800 	.word	0x40010800

080002d8 <LCD_WRITE_STRING>:

void LCD_WRITE_STRING(char *string){
 80002d8:	b580      	push	{r7, lr}
 80002da:	b084      	sub	sp, #16
 80002dc:	af00      	add	r7, sp, #0
 80002de:	6078      	str	r0, [r7, #4]
	int count=0;
 80002e0:	2300      	movs	r3, #0
 80002e2:	60fb      	str	r3, [r7, #12]
	while(*string>0){
 80002e4:	e01c      	b.n	8000320 <LCD_WRITE_STRING+0x48>
		count++;
 80002e6:	68fb      	ldr	r3, [r7, #12]
 80002e8:	3301      	adds	r3, #1
 80002ea:	60fb      	str	r3, [r7, #12]
		LCD_WRITE_CHAR(*string++);
 80002ec:	687b      	ldr	r3, [r7, #4]
 80002ee:	1c5a      	adds	r2, r3, #1
 80002f0:	607a      	str	r2, [r7, #4]
 80002f2:	781b      	ldrb	r3, [r3, #0]
 80002f4:	4618      	mov	r0, r3
 80002f6:	f7ff ffcb 	bl	8000290 <LCD_WRITE_CHAR>
		if(count==16){
 80002fa:	68fb      	ldr	r3, [r7, #12]
 80002fc:	2b10      	cmp	r3, #16
 80002fe:	d104      	bne.n	800030a <LCD_WRITE_STRING+0x32>
			LCD_GOTO_XY(2, 0);
 8000300:	2100      	movs	r1, #0
 8000302:	2002      	movs	r0, #2
 8000304:	f000 f851 	bl	80003aa <LCD_GOTO_XY>
 8000308:	e00a      	b.n	8000320 <LCD_WRITE_STRING+0x48>
		}
		else if(count==32){
 800030a:	68fb      	ldr	r3, [r7, #12]
 800030c:	2b20      	cmp	r3, #32
 800030e:	d107      	bne.n	8000320 <LCD_WRITE_STRING+0x48>
			LCD_clear_screen();
 8000310:	f000 f844 	bl	800039c <LCD_clear_screen>
			LCD_GOTO_XY(1, 0);
 8000314:	2100      	movs	r1, #0
 8000316:	2001      	movs	r0, #1
 8000318:	f000 f847 	bl	80003aa <LCD_GOTO_XY>
			count=0;
 800031c:	2300      	movs	r3, #0
 800031e:	60fb      	str	r3, [r7, #12]
	while(*string>0){
 8000320:	687b      	ldr	r3, [r7, #4]
 8000322:	781b      	ldrb	r3, [r3, #0]
 8000324:	2b00      	cmp	r3, #0
 8000326:	d1de      	bne.n	80002e6 <LCD_WRITE_STRING+0xe>
		}
	}
}
 8000328:	bf00      	nop
 800032a:	3710      	adds	r7, #16
 800032c:	46bd      	mov	sp, r7
 800032e:	bd80      	pop	{r7, pc}

08000330 <LCD_CHECK_LCD_ISBUSY>:

void LCD_CHECK_LCD_ISBUSY(){
 8000330:	b580      	push	{r7, lr}
 8000332:	af00      	add	r7, sp, #0
	PINCFG.GPIO_PinNumber = GPIO_PIN_0;
 8000334:	4b17      	ldr	r3, [pc, #92]	; (8000394 <LCD_CHECK_LCD_ISBUSY+0x64>)
 8000336:	2201      	movs	r2, #1
 8000338:	801a      	strh	r2, [r3, #0]
	PINCFG.GPIO_MODE=GPIO_MODE_INPUT_FLO;
 800033a:	4b16      	ldr	r3, [pc, #88]	; (8000394 <LCD_CHECK_LCD_ISBUSY+0x64>)
 800033c:	2201      	movs	r2, #1
 800033e:	709a      	strb	r2, [r3, #2]
	MCAL_GPIO_Init_Port_Range(LCD_Port, &PINCFG, 8);
 8000340:	2208      	movs	r2, #8
 8000342:	4914      	ldr	r1, [pc, #80]	; (8000394 <LCD_CHECK_LCD_ISBUSY+0x64>)
 8000344:	4814      	ldr	r0, [pc, #80]	; (8000398 <LCD_CHECK_LCD_ISBUSY+0x68>)
 8000346:	f000 fc19 	bl	8000b7c <MCAL_GPIO_Init_Port_Range>



	MCAL_GPIO_WritePin(LCD_CTRL, RW_SWITCH, GPIO_PIN_SET);
 800034a:	2201      	movs	r2, #1
 800034c:	f44f 7100 	mov.w	r1, #512	; 0x200
 8000350:	4811      	ldr	r0, [pc, #68]	; (8000398 <LCD_CHECK_LCD_ISBUSY+0x68>)
 8000352:	f000 fc65 	bl	8000c20 <MCAL_GPIO_WritePin>
	MCAL_GPIO_WritePin(LCD_CTRL, RS_SWITCH, GPIO_PIN_RESET);
 8000356:	2200      	movs	r2, #0
 8000358:	f44f 7180 	mov.w	r1, #256	; 0x100
 800035c:	480e      	ldr	r0, [pc, #56]	; (8000398 <LCD_CHECK_LCD_ISBUSY+0x68>)
 800035e:	f000 fc5f 	bl	8000c20 <MCAL_GPIO_WritePin>

	LCD_KICK();
 8000362:	f7ff ff21 	bl	80001a8 <LCD_KICK>

	PINCFG.GPIO_PinNumber = GPIO_PIN_0;
 8000366:	4b0b      	ldr	r3, [pc, #44]	; (8000394 <LCD_CHECK_LCD_ISBUSY+0x64>)
 8000368:	2201      	movs	r2, #1
 800036a:	801a      	strh	r2, [r3, #0]
	PINCFG.GPIO_MODE=GPIO_MODE_OUTPUT_PP;
 800036c:	4b09      	ldr	r3, [pc, #36]	; (8000394 <LCD_CHECK_LCD_ISBUSY+0x64>)
 800036e:	2204      	movs	r2, #4
 8000370:	709a      	strb	r2, [r3, #2]
	PINCFG.GPIO_OUTPUT_SPEED = GPIO_SPEED_10M;
 8000372:	4b08      	ldr	r3, [pc, #32]	; (8000394 <LCD_CHECK_LCD_ISBUSY+0x64>)
 8000374:	2201      	movs	r2, #1
 8000376:	70da      	strb	r2, [r3, #3]
	MCAL_GPIO_Init_Port_Range(LCD_Port, &PINCFG, 8);
 8000378:	2208      	movs	r2, #8
 800037a:	4906      	ldr	r1, [pc, #24]	; (8000394 <LCD_CHECK_LCD_ISBUSY+0x64>)
 800037c:	4806      	ldr	r0, [pc, #24]	; (8000398 <LCD_CHECK_LCD_ISBUSY+0x68>)
 800037e:	f000 fbfd 	bl	8000b7c <MCAL_GPIO_Init_Port_Range>
	MCAL_GPIO_WritePin(LCD_CTRL, RW_SWITCH, GPIO_PIN_RESET);
 8000382:	2200      	movs	r2, #0
 8000384:	f44f 7100 	mov.w	r1, #512	; 0x200
 8000388:	4803      	ldr	r0, [pc, #12]	; (8000398 <LCD_CHECK_LCD_ISBUSY+0x68>)
 800038a:	f000 fc49 	bl	8000c20 <MCAL_GPIO_WritePin>
}
 800038e:	bf00      	nop
 8000390:	bd80      	pop	{r7, pc}
 8000392:	bf00      	nop
 8000394:	2000001c 	.word	0x2000001c
 8000398:	40010800 	.word	0x40010800

0800039c <LCD_clear_screen>:


void LCD_clear_screen(){
 800039c:	b580      	push	{r7, lr}
 800039e:	af00      	add	r7, sp, #0
	LCD_WRITE_COMMAND(LCD_CLEAR_SCREEN);
 80003a0:	2001      	movs	r0, #1
 80003a2:	f7ff ff51 	bl	8000248 <LCD_WRITE_COMMAND>
}
 80003a6:	bf00      	nop
 80003a8:	bd80      	pop	{r7, pc}

080003aa <LCD_GOTO_XY>:

void LCD_GOTO_XY(unsigned char line,unsigned char position){
 80003aa:	b580      	push	{r7, lr}
 80003ac:	b082      	sub	sp, #8
 80003ae:	af00      	add	r7, sp, #0
 80003b0:	4603      	mov	r3, r0
 80003b2:	460a      	mov	r2, r1
 80003b4:	71fb      	strb	r3, [r7, #7]
 80003b6:	4613      	mov	r3, r2
 80003b8:	71bb      	strb	r3, [r7, #6]
	if(line == 1){
 80003ba:	79fb      	ldrb	r3, [r7, #7]
 80003bc:	2b01      	cmp	r3, #1
 80003be:	d108      	bne.n	80003d2 <LCD_GOTO_XY+0x28>
		if(position<16 && position>=0){
 80003c0:	79bb      	ldrb	r3, [r7, #6]
 80003c2:	2b0f      	cmp	r3, #15
 80003c4:	d805      	bhi.n	80003d2 <LCD_GOTO_XY+0x28>
			LCD_WRITE_COMMAND(LCD_BEGIN_AT_FIRST_ROW+position);
 80003c6:	79bb      	ldrb	r3, [r7, #6]
 80003c8:	3b80      	subs	r3, #128	; 0x80
 80003ca:	b2db      	uxtb	r3, r3
 80003cc:	4618      	mov	r0, r3
 80003ce:	f7ff ff3b 	bl	8000248 <LCD_WRITE_COMMAND>
		}

	}
	if(line == 2){
 80003d2:	79fb      	ldrb	r3, [r7, #7]
 80003d4:	2b02      	cmp	r3, #2
 80003d6:	d108      	bne.n	80003ea <LCD_GOTO_XY+0x40>
		if(position<16 && position>=0){
 80003d8:	79bb      	ldrb	r3, [r7, #6]
 80003da:	2b0f      	cmp	r3, #15
 80003dc:	d805      	bhi.n	80003ea <LCD_GOTO_XY+0x40>
			LCD_WRITE_COMMAND(LCD_BEGIN_AT_SECOND_ROW+position);
 80003de:	79bb      	ldrb	r3, [r7, #6]
 80003e0:	3b40      	subs	r3, #64	; 0x40
 80003e2:	b2db      	uxtb	r3, r3
 80003e4:	4618      	mov	r0, r3
 80003e6:	f7ff ff2f 	bl	8000248 <LCD_WRITE_COMMAND>
		}
	}
}
 80003ea:	bf00      	nop
 80003ec:	3708      	adds	r7, #8
 80003ee:	46bd      	mov	sp, r7
 80003f0:	bd80      	pop	{r7, pc}
	...

080003f4 <clock_init>:

uint8_t IRQ_Flag ;


void clock_init()
{
 80003f4:	b480      	push	{r7}
 80003f6:	af00      	add	r7, sp, #0
	//Init clock for GPIOA
	RCC_GPIOA_CLK_EN();
 80003f8:	4b0a      	ldr	r3, [pc, #40]	; (8000424 <clock_init+0x30>)
 80003fa:	699b      	ldr	r3, [r3, #24]
 80003fc:	4a09      	ldr	r2, [pc, #36]	; (8000424 <clock_init+0x30>)
 80003fe:	f043 0304 	orr.w	r3, r3, #4
 8000402:	6193      	str	r3, [r2, #24]

	//Init clock for GPIOB
	RCC_GPIOB_CLK_EN() ;
 8000404:	4b07      	ldr	r3, [pc, #28]	; (8000424 <clock_init+0x30>)
 8000406:	699b      	ldr	r3, [r3, #24]
 8000408:	4a06      	ldr	r2, [pc, #24]	; (8000424 <clock_init+0x30>)
 800040a:	f043 0308 	orr.w	r3, r3, #8
 800040e:	6193      	str	r3, [r2, #24]

	//Init clock for AFIO
	AFIO_GPIO_CLK_EN();
 8000410:	4b04      	ldr	r3, [pc, #16]	; (8000424 <clock_init+0x30>)
 8000412:	699b      	ldr	r3, [r3, #24]
 8000414:	4a03      	ldr	r2, [pc, #12]	; (8000424 <clock_init+0x30>)
 8000416:	f043 0301 	orr.w	r3, r3, #1
 800041a:	6193      	str	r3, [r2, #24]
}
 800041c:	bf00      	nop
 800041e:	46bd      	mov	sp, r7
 8000420:	bc80      	pop	{r7}
 8000422:	4770      	bx	lr
 8000424:	40021000 	.word	0x40021000

08000428 <delay>:


void delay(int x)
{
 8000428:	b480      	push	{r7}
 800042a:	b085      	sub	sp, #20
 800042c:	af00      	add	r7, sp, #0
 800042e:	6078      	str	r0, [r7, #4]
	unsigned i,j ;
	for(i=0; i<x; i++)
 8000430:	2300      	movs	r3, #0
 8000432:	60fb      	str	r3, [r7, #12]
 8000434:	e00b      	b.n	800044e <delay+0x26>
		for(j=0; j<255; j++);
 8000436:	2300      	movs	r3, #0
 8000438:	60bb      	str	r3, [r7, #8]
 800043a:	e002      	b.n	8000442 <delay+0x1a>
 800043c:	68bb      	ldr	r3, [r7, #8]
 800043e:	3301      	adds	r3, #1
 8000440:	60bb      	str	r3, [r7, #8]
 8000442:	68bb      	ldr	r3, [r7, #8]
 8000444:	2bfe      	cmp	r3, #254	; 0xfe
 8000446:	d9f9      	bls.n	800043c <delay+0x14>
	for(i=0; i<x; i++)
 8000448:	68fb      	ldr	r3, [r7, #12]
 800044a:	3301      	adds	r3, #1
 800044c:	60fb      	str	r3, [r7, #12]
 800044e:	687b      	ldr	r3, [r7, #4]
 8000450:	68fa      	ldr	r2, [r7, #12]
 8000452:	429a      	cmp	r2, r3
 8000454:	d3ef      	bcc.n	8000436 <delay+0xe>
}
 8000456:	bf00      	nop
 8000458:	3714      	adds	r7, #20
 800045a:	46bd      	mov	sp, r7
 800045c:	bc80      	pop	{r7}
 800045e:	4770      	bx	lr

08000460 <EXTI9_Callback>:


void EXTI9_Callback(void)
{
 8000460:	b580      	push	{r7, lr}
 8000462:	af00      	add	r7, sp, #0
	LCD_clear_screen();
 8000464:	f7ff ff9a 	bl	800039c <LCD_clear_screen>
	IRQ_Flag = 1 ;
 8000468:	4b05      	ldr	r3, [pc, #20]	; (8000480 <EXTI9_Callback+0x20>)
 800046a:	2201      	movs	r2, #1
 800046c:	701a      	strb	r2, [r3, #0]
	LCD_WRITE_STRING("IRQ EXTI9 is Happened _|--");
 800046e:	4805      	ldr	r0, [pc, #20]	; (8000484 <EXTI9_Callback+0x24>)
 8000470:	f7ff ff32 	bl	80002d8 <LCD_WRITE_STRING>
	delay(1000);
 8000474:	f44f 707a 	mov.w	r0, #1000	; 0x3e8
 8000478:	f7ff ffd6 	bl	8000428 <delay>

}
 800047c:	bf00      	nop
 800047e:	bd80      	pop	{r7, pc}
 8000480:	20000020 	.word	0x20000020
 8000484:	08000ccc 	.word	0x08000ccc

08000488 <main>:


int main(void)
{
 8000488:	b580      	push	{r7, lr}
 800048a:	b086      	sub	sp, #24
 800048c:	af00      	add	r7, sp, #0

	clock_init();
 800048e:	f7ff ffb1 	bl	80003f4 <clock_init>
	LCD_INIT();
 8000492:	f7ff fe9f 	bl	80001d4 <LCD_INIT>
	LCD_clear_screen();
 8000496:	f7ff ff81 	bl	800039c <LCD_clear_screen>

	EXTI_PinConfig_t EXTI_CFG;
	EXTI_CFG.EXIT_PIN = EXTI9PB9 ;
 800049a:	4a0e      	ldr	r2, [pc, #56]	; (80004d4 <main+0x4c>)
 800049c:	1d3b      	adds	r3, r7, #4
 800049e:	ca07      	ldmia	r2, {r0, r1, r2}
 80004a0:	e883 0007 	stmia.w	r3, {r0, r1, r2}
	EXTI_CFG.Trigger_Case = EXTI_Trigger_RISING ;
 80004a4:	2300      	movs	r3, #0
 80004a6:	743b      	strb	r3, [r7, #16]
	EXTI_CFG.IRQ_EN = EXTI_IRQ_ENABLE	;
 80004a8:	2301      	movs	r3, #1
 80004aa:	747b      	strb	r3, [r7, #17]
	EXTI_CFG.P_IRQ_CallBack = EXTI9_Callback ;
 80004ac:	4b0a      	ldr	r3, [pc, #40]	; (80004d8 <main+0x50>)
 80004ae:	617b      	str	r3, [r7, #20]
	MCAL_EXTI_GPIO_Init(&EXTI_CFG);
 80004b0:	1d3b      	adds	r3, r7, #4
 80004b2:	4618      	mov	r0, r3
 80004b4:	f000 f9f2 	bl	800089c <MCAL_EXTI_GPIO_Init>

	IRQ_Flag = 1 ;
 80004b8:	4b08      	ldr	r3, [pc, #32]	; (80004dc <main+0x54>)
 80004ba:	2201      	movs	r2, #1
 80004bc:	701a      	strb	r2, [r3, #0]

	while(1)
	{
		if(IRQ_Flag)
 80004be:	4b07      	ldr	r3, [pc, #28]	; (80004dc <main+0x54>)
 80004c0:	781b      	ldrb	r3, [r3, #0]
 80004c2:	2b00      	cmp	r3, #0
 80004c4:	d0fb      	beq.n	80004be <main+0x36>
		{
		LCD_clear_screen();
 80004c6:	f7ff ff69 	bl	800039c <LCD_clear_screen>
		IRQ_Flag = 0 ;
 80004ca:	4b04      	ldr	r3, [pc, #16]	; (80004dc <main+0x54>)
 80004cc:	2200      	movs	r2, #0
 80004ce:	701a      	strb	r2, [r3, #0]
		if(IRQ_Flag)
 80004d0:	e7f5      	b.n	80004be <main+0x36>
 80004d2:	bf00      	nop
 80004d4:	08000ce8 	.word	0x08000ce8
 80004d8:	08000461 	.word	0x08000461
 80004dc:	20000020 	.word	0x20000020

080004e0 <Reset_Handler>:

  .section .text.Reset_Handler
  .weak Reset_Handler
  .type Reset_Handler, %function
Reset_Handler:
  ldr   r0, =_estack
 80004e0:	480d      	ldr	r0, [pc, #52]	; (8000518 <LoopForever+0x2>)
  mov   sp, r0          /* set stack pointer */
 80004e2:	4685      	mov	sp, r0
/* Call the clock system intitialization function.*/
  bl  SystemInit
 80004e4:	f3af 8000 	nop.w

/* Copy the data segment initializers from flash to SRAM */
  ldr r0, =_sdata
 80004e8:	480c      	ldr	r0, [pc, #48]	; (800051c <LoopForever+0x6>)
  ldr r1, =_edata
 80004ea:	490d      	ldr	r1, [pc, #52]	; (8000520 <LoopForever+0xa>)
  ldr r2, =_sidata
 80004ec:	4a0d      	ldr	r2, [pc, #52]	; (8000524 <LoopForever+0xe>)
  movs r3, #0
 80004ee:	2300      	movs	r3, #0
  b LoopCopyDataInit
 80004f0:	e002      	b.n	80004f8 <LoopCopyDataInit>

080004f2 <CopyDataInit>:

CopyDataInit:
  ldr r4, [r2, r3]
 80004f2:	58d4      	ldr	r4, [r2, r3]
  str r4, [r0, r3]
 80004f4:	50c4      	str	r4, [r0, r3]
  adds r3, r3, #4
 80004f6:	3304      	adds	r3, #4

080004f8 <LoopCopyDataInit>:

LoopCopyDataInit:
  adds r4, r0, r3
 80004f8:	18c4      	adds	r4, r0, r3
  cmp r4, r1
 80004fa:	428c      	cmp	r4, r1
  bcc CopyDataInit
 80004fc:	d3f9      	bcc.n	80004f2 <CopyDataInit>

/* Zero fill the bss segment. */
  ldr r2, =_sbss
 80004fe:	4a0a      	ldr	r2, [pc, #40]	; (8000528 <LoopForever+0x12>)
  ldr r4, =_ebss
 8000500:	4c0a      	ldr	r4, [pc, #40]	; (800052c <LoopForever+0x16>)
  movs r3, #0
 8000502:	2300      	movs	r3, #0
  b LoopFillZerobss
 8000504:	e001      	b.n	800050a <LoopFillZerobss>

08000506 <FillZerobss>:

FillZerobss:
  str  r3, [r2]
 8000506:	6013      	str	r3, [r2, #0]
  adds r2, r2, #4
 8000508:	3204      	adds	r2, #4

0800050a <LoopFillZerobss>:

LoopFillZerobss:
  cmp r2, r4
 800050a:	42a2      	cmp	r2, r4
  bcc FillZerobss
 800050c:	d3fb      	bcc.n	8000506 <FillZerobss>

/* Call static constructors */
  bl __libc_init_array
 800050e:	f000 fbad 	bl	8000c6c <__libc_init_array>
/* Call the application's entry point.*/
  bl main
 8000512:	f7ff ffb9 	bl	8000488 <main>

08000516 <LoopForever>:

LoopForever:
    b LoopForever
 8000516:	e7fe      	b.n	8000516 <LoopForever>
  ldr   r0, =_estack
 8000518:	20002800 	.word	0x20002800
  ldr r0, =_sdata
 800051c:	20000000 	.word	0x20000000
  ldr r1, =_edata
 8000520:	20000000 	.word	0x20000000
  ldr r2, =_sidata
 8000524:	08000d1c 	.word	0x08000d1c
  ldr r2, =_sbss
 8000528:	20000000 	.word	0x20000000
  ldr r4, =_ebss
 800052c:	20000064 	.word	0x20000064

08000530 <ADC1_2_IRQHandler>:
 * @retval : None
*/
  .section .text.Default_Handler,"ax",%progbits
Default_Handler:
Infinite_Loop:
  b Infinite_Loop
 8000530:	e7fe      	b.n	8000530 <ADC1_2_IRQHandler>
	...

08000534 <Enable_NVIC>:
 *							Generic Functions
 * ========================================================================
*/

void Enable_NVIC ( uint16_t IRQ)
{
 8000534:	b480      	push	{r7}
 8000536:	b083      	sub	sp, #12
 8000538:	af00      	add	r7, sp, #0
 800053a:	4603      	mov	r3, r0
 800053c:	80fb      	strh	r3, [r7, #6]
	switch (IRQ) {
 800053e:	88fb      	ldrh	r3, [r7, #6]
 8000540:	2b0f      	cmp	r3, #15
 8000542:	d853      	bhi.n	80005ec <Enable_NVIC+0xb8>
 8000544:	a201      	add	r2, pc, #4	; (adr r2, 800054c <Enable_NVIC+0x18>)
 8000546:	f852 f023 	ldr.w	pc, [r2, r3, lsl #2]
 800054a:	bf00      	nop
 800054c:	0800058d 	.word	0x0800058d
 8000550:	0800059b 	.word	0x0800059b
 8000554:	080005a9 	.word	0x080005a9
 8000558:	080005b7 	.word	0x080005b7
 800055c:	080005c5 	.word	0x080005c5
 8000560:	080005d1 	.word	0x080005d1
 8000564:	080005d1 	.word	0x080005d1
 8000568:	080005d1 	.word	0x080005d1
 800056c:	080005d1 	.word	0x080005d1
 8000570:	080005d1 	.word	0x080005d1
 8000574:	080005df 	.word	0x080005df
 8000578:	080005df 	.word	0x080005df
 800057c:	080005df 	.word	0x080005df
 8000580:	080005df 	.word	0x080005df
 8000584:	080005df 	.word	0x080005df
 8000588:	080005df 	.word	0x080005df
		case 0:
			NVIC_IRQ6_EXTI0_Enable ;
 800058c:	4b1a      	ldr	r3, [pc, #104]	; (80005f8 <Enable_NVIC+0xc4>)
 800058e:	681b      	ldr	r3, [r3, #0]
 8000590:	4a19      	ldr	r2, [pc, #100]	; (80005f8 <Enable_NVIC+0xc4>)
 8000592:	f043 0340 	orr.w	r3, r3, #64	; 0x40
 8000596:	6013      	str	r3, [r2, #0]
			break;
 8000598:	e028      	b.n	80005ec <Enable_NVIC+0xb8>
		case 1:
			NVIC_IRQ7_EXTI1_Enable ;
 800059a:	4b17      	ldr	r3, [pc, #92]	; (80005f8 <Enable_NVIC+0xc4>)
 800059c:	681b      	ldr	r3, [r3, #0]
 800059e:	4a16      	ldr	r2, [pc, #88]	; (80005f8 <Enable_NVIC+0xc4>)
 80005a0:	f043 0380 	orr.w	r3, r3, #128	; 0x80
 80005a4:	6013      	str	r3, [r2, #0]
			break;
 80005a6:	e021      	b.n	80005ec <Enable_NVIC+0xb8>
		case 2:
			NVIC_IRQ8_EXTI2_Enable ;
 80005a8:	4b13      	ldr	r3, [pc, #76]	; (80005f8 <Enable_NVIC+0xc4>)
 80005aa:	681b      	ldr	r3, [r3, #0]
 80005ac:	4a12      	ldr	r2, [pc, #72]	; (80005f8 <Enable_NVIC+0xc4>)
 80005ae:	f443 7380 	orr.w	r3, r3, #256	; 0x100
 80005b2:	6013      	str	r3, [r2, #0]
			break;
 80005b4:	e01a      	b.n	80005ec <Enable_NVIC+0xb8>
		case 3:
			NVIC_IRQ9_EXTI3_Enable ;
 80005b6:	4b10      	ldr	r3, [pc, #64]	; (80005f8 <Enable_NVIC+0xc4>)
 80005b8:	681b      	ldr	r3, [r3, #0]
 80005ba:	4a0f      	ldr	r2, [pc, #60]	; (80005f8 <Enable_NVIC+0xc4>)
 80005bc:	f443 7300 	orr.w	r3, r3, #512	; 0x200
 80005c0:	6013      	str	r3, [r2, #0]
			break;
 80005c2:	e013      	b.n	80005ec <Enable_NVIC+0xb8>
		case 4:
			NVIC_IRQ10_EXTI4_Enable ;
 80005c4:	4b0c      	ldr	r3, [pc, #48]	; (80005f8 <Enable_NVIC+0xc4>)
 80005c6:	681b      	ldr	r3, [r3, #0]
 80005c8:	4a0b      	ldr	r2, [pc, #44]	; (80005f8 <Enable_NVIC+0xc4>)
 80005ca:	f443 6380 	orr.w	r3, r3, #1024	; 0x400
 80005ce:	6013      	str	r3, [r2, #0]
		case 5:
		case 6:
		case 7:
		case 8:
		case 9:
			NVIC_IRQ23_EXTI5_9_Enable ;
 80005d0:	4b09      	ldr	r3, [pc, #36]	; (80005f8 <Enable_NVIC+0xc4>)
 80005d2:	681b      	ldr	r3, [r3, #0]
 80005d4:	4a08      	ldr	r2, [pc, #32]	; (80005f8 <Enable_NVIC+0xc4>)
 80005d6:	f443 0300 	orr.w	r3, r3, #8388608	; 0x800000
 80005da:	6013      	str	r3, [r2, #0]
			break;
 80005dc:	e006      	b.n	80005ec <Enable_NVIC+0xb8>
		case 11:
		case 12:
		case 13:
		case 14:
		case 15:
			NVIC_IRQ40_EXTI10_15_Enable	;
 80005de:	4b07      	ldr	r3, [pc, #28]	; (80005fc <Enable_NVIC+0xc8>)
 80005e0:	681b      	ldr	r3, [r3, #0]
 80005e2:	4a06      	ldr	r2, [pc, #24]	; (80005fc <Enable_NVIC+0xc8>)
 80005e4:	f443 7380 	orr.w	r3, r3, #256	; 0x100
 80005e8:	6013      	str	r3, [r2, #0]
			break;
 80005ea:	bf00      	nop
	}
}
 80005ec:	bf00      	nop
 80005ee:	370c      	adds	r7, #12
 80005f0:	46bd      	mov	sp, r7
 80005f2:	bc80      	pop	{r7}
 80005f4:	4770      	bx	lr
 80005f6:	bf00      	nop
 80005f8:	e000e100 	.word	0xe000e100
 80005fc:	e000e104 	.word	0xe000e104

08000600 <Disable_NVIC>:

void Disable_NVIC ( uint16_t IRQ)
{
 8000600:	b480      	push	{r7}
 8000602:	b083      	sub	sp, #12
 8000604:	af00      	add	r7, sp, #0
 8000606:	4603      	mov	r3, r0
 8000608:	80fb      	strh	r3, [r7, #6]
	switch (IRQ) {
 800060a:	88fb      	ldrh	r3, [r7, #6]
 800060c:	2b0f      	cmp	r3, #15
 800060e:	d853      	bhi.n	80006b8 <Disable_NVIC+0xb8>
 8000610:	a201      	add	r2, pc, #4	; (adr r2, 8000618 <Disable_NVIC+0x18>)
 8000612:	f852 f023 	ldr.w	pc, [r2, r3, lsl #2]
 8000616:	bf00      	nop
 8000618:	08000659 	.word	0x08000659
 800061c:	08000667 	.word	0x08000667
 8000620:	08000675 	.word	0x08000675
 8000624:	08000683 	.word	0x08000683
 8000628:	08000691 	.word	0x08000691
 800062c:	0800069d 	.word	0x0800069d
 8000630:	0800069d 	.word	0x0800069d
 8000634:	0800069d 	.word	0x0800069d
 8000638:	0800069d 	.word	0x0800069d
 800063c:	0800069d 	.word	0x0800069d
 8000640:	080006ab 	.word	0x080006ab
 8000644:	080006ab 	.word	0x080006ab
 8000648:	080006ab 	.word	0x080006ab
 800064c:	080006ab 	.word	0x080006ab
 8000650:	080006ab 	.word	0x080006ab
 8000654:	080006ab 	.word	0x080006ab
		case 0:
			NVIC_IRQ6_EXTI0_Disable ;
 8000658:	4b1a      	ldr	r3, [pc, #104]	; (80006c4 <Disable_NVIC+0xc4>)
 800065a:	681b      	ldr	r3, [r3, #0]
 800065c:	4a19      	ldr	r2, [pc, #100]	; (80006c4 <Disable_NVIC+0xc4>)
 800065e:	f043 0340 	orr.w	r3, r3, #64	; 0x40
 8000662:	6013      	str	r3, [r2, #0]
			break;
 8000664:	e028      	b.n	80006b8 <Disable_NVIC+0xb8>
		case 1:
			NVIC_IRQ7_EXTI1_Disable ;
 8000666:	4b17      	ldr	r3, [pc, #92]	; (80006c4 <Disable_NVIC+0xc4>)
 8000668:	681b      	ldr	r3, [r3, #0]
 800066a:	4a16      	ldr	r2, [pc, #88]	; (80006c4 <Disable_NVIC+0xc4>)
 800066c:	f043 0380 	orr.w	r3, r3, #128	; 0x80
 8000670:	6013      	str	r3, [r2, #0]
			break;
 8000672:	e021      	b.n	80006b8 <Disable_NVIC+0xb8>
		case 2:
			NVIC_IRQ8_EXTI2_Disable ;
 8000674:	4b13      	ldr	r3, [pc, #76]	; (80006c4 <Disable_NVIC+0xc4>)
 8000676:	681b      	ldr	r3, [r3, #0]
 8000678:	4a12      	ldr	r2, [pc, #72]	; (80006c4 <Disable_NVIC+0xc4>)
 800067a:	f443 7380 	orr.w	r3, r3, #256	; 0x100
 800067e:	6013      	str	r3, [r2, #0]
			break;
 8000680:	e01a      	b.n	80006b8 <Disable_NVIC+0xb8>
		case 3:
			NVIC_IRQ9_EXTI3_Disable ;
 8000682:	4b10      	ldr	r3, [pc, #64]	; (80006c4 <Disable_NVIC+0xc4>)
 8000684:	681b      	ldr	r3, [r3, #0]
 8000686:	4a0f      	ldr	r2, [pc, #60]	; (80006c4 <Disable_NVIC+0xc4>)
 8000688:	f443 7300 	orr.w	r3, r3, #512	; 0x200
 800068c:	6013      	str	r3, [r2, #0]
			break;
 800068e:	e013      	b.n	80006b8 <Disable_NVIC+0xb8>
		case 4:
			NVIC_IRQ10_EXTI4_Disable ;
 8000690:	4b0c      	ldr	r3, [pc, #48]	; (80006c4 <Disable_NVIC+0xc4>)
 8000692:	681b      	ldr	r3, [r3, #0]
 8000694:	4a0b      	ldr	r2, [pc, #44]	; (80006c4 <Disable_NVIC+0xc4>)
 8000696:	f443 6380 	orr.w	r3, r3, #1024	; 0x400
 800069a:	6013      	str	r3, [r2, #0]
		case 5:
		case 6:
		case 7:
		case 8:
		case 9:
			NVIC_IRQ23_EXTI5_9_Disable ;
 800069c:	4b09      	ldr	r3, [pc, #36]	; (80006c4 <Disable_NVIC+0xc4>)
 800069e:	681b      	ldr	r3, [r3, #0]
 80006a0:	4a08      	ldr	r2, [pc, #32]	; (80006c4 <Disable_NVIC+0xc4>)
 80006a2:	f443 0300 	orr.w	r3, r3, #8388608	; 0x800000
 80006a6:	6013      	str	r3, [r2, #0]
			break;
 80006a8:	e006      	b.n	80006b8 <Disable_NVIC+0xb8>
		case 11:
		case 12:
		case 13:
		case 14:
		case 15:
			NVIC_IRQ40_EXTI10_15_Disable	;
 80006aa:	4b07      	ldr	r3, [pc, #28]	; (80006c8 <Disable_NVIC+0xc8>)
 80006ac:	681b      	ldr	r3, [r3, #0]
 80006ae:	4a06      	ldr	r2, [pc, #24]	; (80006c8 <Disable_NVIC+0xc8>)
 80006b0:	f443 7380 	orr.w	r3, r3, #256	; 0x100
 80006b4:	6013      	str	r3, [r2, #0]
			break;
 80006b6:	bf00      	nop
	}
}
 80006b8:	bf00      	nop
 80006ba:	370c      	adds	r7, #12
 80006bc:	46bd      	mov	sp, r7
 80006be:	bc80      	pop	{r7}
 80006c0:	4770      	bx	lr
 80006c2:	bf00      	nop
 80006c4:	e000e180 	.word	0xe000e180
 80006c8:	e000e184 	.word	0xe000e184

080006cc <Update_EXTI>:



void Update_EXTI(EXTI_PinConfig_t * EXTI_Config)
{
 80006cc:	b580      	push	{r7, lr}
 80006ce:	b084      	sub	sp, #16
 80006d0:	af00      	add	r7, sp, #0
 80006d2:	6078      	str	r0, [r7, #4]
	//1- Configure GPIO to be AF Input -> Floating INPUT
	GPIO_PINCONFIG_t PinCfg ;

	PinCfg.GPIO_PinNumber = EXTI_Config->EXIT_PIN.GPIO_PIN;
 80006d4:	687b      	ldr	r3, [r7, #4]
 80006d6:	891b      	ldrh	r3, [r3, #8]
 80006d8:	813b      	strh	r3, [r7, #8]
	PinCfg.GPIO_MODE = GPIO_MODE_AF_INPUT;
 80006da:	2308      	movs	r3, #8
 80006dc:	72bb      	strb	r3, [r7, #10]
	MCAL_GPIO_Init(EXTI_Config->EXIT_PIN.GPIO_PORT, &PinCfg);
 80006de:	687b      	ldr	r3, [r7, #4]
 80006e0:	685b      	ldr	r3, [r3, #4]
 80006e2:	f107 0208 	add.w	r2, r7, #8
 80006e6:	4611      	mov	r1, r2
 80006e8:	4618      	mov	r0, r3
 80006ea:	f000 f9c4 	bl	8000a76 <MCAL_GPIO_Init>
//	{
//		i++;
//	}


	uint8_t AFIO_EXTICR_Index = EXTI_Config->EXIT_PIN.ETI_InputLineNumber / 4 ;
 80006ee:	687b      	ldr	r3, [r7, #4]
 80006f0:	881b      	ldrh	r3, [r3, #0]
 80006f2:	089b      	lsrs	r3, r3, #2
 80006f4:	b29b      	uxth	r3, r3
 80006f6:	73fb      	strb	r3, [r7, #15]
	uint8_t AFIO_EXTICR_Position = (EXTI_Config->EXIT_PIN.ETI_InputLineNumber % 4) * 4 ;
 80006f8:	687b      	ldr	r3, [r7, #4]
 80006fa:	881b      	ldrh	r3, [r3, #0]
 80006fc:	b2db      	uxtb	r3, r3
 80006fe:	f003 0303 	and.w	r3, r3, #3
 8000702:	b2db      	uxtb	r3, r3
 8000704:	009b      	lsls	r3, r3, #2
 8000706:	73bb      	strb	r3, [r7, #14]

	//clear the four bit
	AFIO->EXTICR[AFIO_EXTICR_Index] &= ~(0xF << AFIO_EXTICR_Position) ;
 8000708:	4a5d      	ldr	r2, [pc, #372]	; (8000880 <Update_EXTI+0x1b4>)
 800070a:	7bfb      	ldrb	r3, [r7, #15]
 800070c:	3302      	adds	r3, #2
 800070e:	f852 2023 	ldr.w	r2, [r2, r3, lsl #2]
 8000712:	7bbb      	ldrb	r3, [r7, #14]
 8000714:	210f      	movs	r1, #15
 8000716:	fa01 f303 	lsl.w	r3, r1, r3
 800071a:	43db      	mvns	r3, r3
 800071c:	4618      	mov	r0, r3
 800071e:	4958      	ldr	r1, [pc, #352]	; (8000880 <Update_EXTI+0x1b4>)
 8000720:	7bfb      	ldrb	r3, [r7, #15]
 8000722:	4002      	ands	r2, r0
 8000724:	3302      	adds	r3, #2
 8000726:	f841 2023 	str.w	r2, [r1, r3, lsl #2]

	AFIO->EXTICR[AFIO_EXTICR_Index] |=((AFIO_GPIO_EXTI_Mapping(EXTI_Config->EXIT_PIN.GPIO_PORT) &0xF) << AFIO_EXTICR_Position) ;
 800072a:	4a55      	ldr	r2, [pc, #340]	; (8000880 <Update_EXTI+0x1b4>)
 800072c:	7bfb      	ldrb	r3, [r7, #15]
 800072e:	3302      	adds	r3, #2
 8000730:	f852 2023 	ldr.w	r2, [r2, r3, lsl #2]
 8000734:	687b      	ldr	r3, [r7, #4]
 8000736:	685b      	ldr	r3, [r3, #4]
 8000738:	4952      	ldr	r1, [pc, #328]	; (8000884 <Update_EXTI+0x1b8>)
 800073a:	428b      	cmp	r3, r1
 800073c:	d016      	beq.n	800076c <Update_EXTI+0xa0>
 800073e:	687b      	ldr	r3, [r7, #4]
 8000740:	685b      	ldr	r3, [r3, #4]
 8000742:	4951      	ldr	r1, [pc, #324]	; (8000888 <Update_EXTI+0x1bc>)
 8000744:	428b      	cmp	r3, r1
 8000746:	d00f      	beq.n	8000768 <Update_EXTI+0x9c>
 8000748:	687b      	ldr	r3, [r7, #4]
 800074a:	685b      	ldr	r3, [r3, #4]
 800074c:	494f      	ldr	r1, [pc, #316]	; (800088c <Update_EXTI+0x1c0>)
 800074e:	428b      	cmp	r3, r1
 8000750:	d008      	beq.n	8000764 <Update_EXTI+0x98>
 8000752:	687b      	ldr	r3, [r7, #4]
 8000754:	685b      	ldr	r3, [r3, #4]
 8000756:	494e      	ldr	r1, [pc, #312]	; (8000890 <Update_EXTI+0x1c4>)
 8000758:	428b      	cmp	r3, r1
 800075a:	d101      	bne.n	8000760 <Update_EXTI+0x94>
 800075c:	2303      	movs	r3, #3
 800075e:	e006      	b.n	800076e <Update_EXTI+0xa2>
 8000760:	2300      	movs	r3, #0
 8000762:	e004      	b.n	800076e <Update_EXTI+0xa2>
 8000764:	2302      	movs	r3, #2
 8000766:	e002      	b.n	800076e <Update_EXTI+0xa2>
 8000768:	2301      	movs	r3, #1
 800076a:	e000      	b.n	800076e <Update_EXTI+0xa2>
 800076c:	2300      	movs	r3, #0
 800076e:	7bb9      	ldrb	r1, [r7, #14]
 8000770:	408b      	lsls	r3, r1
 8000772:	4618      	mov	r0, r3
 8000774:	4942      	ldr	r1, [pc, #264]	; (8000880 <Update_EXTI+0x1b4>)
 8000776:	7bfb      	ldrb	r3, [r7, #15]
 8000778:	4302      	orrs	r2, r0
 800077a:	3302      	adds	r3, #2
 800077c:	f841 2023 	str.w	r2, [r1, r3, lsl #2]

	//===========================================================

	//3- Update Rising or Falling Register
	EXTI->RTSR &= ~(1<<EXTI_Config->EXIT_PIN.ETI_InputLineNumber);
 8000780:	4b44      	ldr	r3, [pc, #272]	; (8000894 <Update_EXTI+0x1c8>)
 8000782:	689b      	ldr	r3, [r3, #8]
 8000784:	687a      	ldr	r2, [r7, #4]
 8000786:	8812      	ldrh	r2, [r2, #0]
 8000788:	4611      	mov	r1, r2
 800078a:	2201      	movs	r2, #1
 800078c:	408a      	lsls	r2, r1
 800078e:	43d2      	mvns	r2, r2
 8000790:	4611      	mov	r1, r2
 8000792:	4a40      	ldr	r2, [pc, #256]	; (8000894 <Update_EXTI+0x1c8>)
 8000794:	400b      	ands	r3, r1
 8000796:	6093      	str	r3, [r2, #8]
	EXTI->FTSR &= ~(1<<EXTI_Config->EXIT_PIN.ETI_InputLineNumber);
 8000798:	4b3e      	ldr	r3, [pc, #248]	; (8000894 <Update_EXTI+0x1c8>)
 800079a:	68db      	ldr	r3, [r3, #12]
 800079c:	687a      	ldr	r2, [r7, #4]
 800079e:	8812      	ldrh	r2, [r2, #0]
 80007a0:	4611      	mov	r1, r2
 80007a2:	2201      	movs	r2, #1
 80007a4:	408a      	lsls	r2, r1
 80007a6:	43d2      	mvns	r2, r2
 80007a8:	4611      	mov	r1, r2
 80007aa:	4a3a      	ldr	r2, [pc, #232]	; (8000894 <Update_EXTI+0x1c8>)
 80007ac:	400b      	ands	r3, r1
 80007ae:	60d3      	str	r3, [r2, #12]

	switch(EXTI_Config->Trigger_Case)
 80007b0:	687b      	ldr	r3, [r7, #4]
 80007b2:	7b1b      	ldrb	r3, [r3, #12]
 80007b4:	2b00      	cmp	r3, #0
 80007b6:	d002      	beq.n	80007be <Update_EXTI+0xf2>
 80007b8:	2b01      	cmp	r3, #1
 80007ba:	d00c      	beq.n	80007d6 <Update_EXTI+0x10a>
 80007bc:	e017      	b.n	80007ee <Update_EXTI+0x122>
	{
	case EXTI_Trigger_RISING :
		EXTI->RTSR |= (1<<EXTI_Config->EXIT_PIN.ETI_InputLineNumber) ;
 80007be:	4b35      	ldr	r3, [pc, #212]	; (8000894 <Update_EXTI+0x1c8>)
 80007c0:	689b      	ldr	r3, [r3, #8]
 80007c2:	687a      	ldr	r2, [r7, #4]
 80007c4:	8812      	ldrh	r2, [r2, #0]
 80007c6:	4611      	mov	r1, r2
 80007c8:	2201      	movs	r2, #1
 80007ca:	408a      	lsls	r2, r1
 80007cc:	4611      	mov	r1, r2
 80007ce:	4a31      	ldr	r2, [pc, #196]	; (8000894 <Update_EXTI+0x1c8>)
 80007d0:	430b      	orrs	r3, r1
 80007d2:	6093      	str	r3, [r2, #8]
		break ;
 80007d4:	e022      	b.n	800081c <Update_EXTI+0x150>
	case EXTI_Trigger_FALLING :
		EXTI->FTSR |= (1<<EXTI_Config->EXIT_PIN.ETI_InputLineNumber) ;
 80007d6:	4b2f      	ldr	r3, [pc, #188]	; (8000894 <Update_EXTI+0x1c8>)
 80007d8:	68db      	ldr	r3, [r3, #12]
 80007da:	687a      	ldr	r2, [r7, #4]
 80007dc:	8812      	ldrh	r2, [r2, #0]
 80007de:	4611      	mov	r1, r2
 80007e0:	2201      	movs	r2, #1
 80007e2:	408a      	lsls	r2, r1
 80007e4:	4611      	mov	r1, r2
 80007e6:	4a2b      	ldr	r2, [pc, #172]	; (8000894 <Update_EXTI+0x1c8>)
 80007e8:	430b      	orrs	r3, r1
 80007ea:	60d3      	str	r3, [r2, #12]
		break ;
 80007ec:	e016      	b.n	800081c <Update_EXTI+0x150>
	default :
		EXTI->RTSR |= (1<<EXTI_Config->EXIT_PIN.ETI_InputLineNumber) ;
 80007ee:	4b29      	ldr	r3, [pc, #164]	; (8000894 <Update_EXTI+0x1c8>)
 80007f0:	689b      	ldr	r3, [r3, #8]
 80007f2:	687a      	ldr	r2, [r7, #4]
 80007f4:	8812      	ldrh	r2, [r2, #0]
 80007f6:	4611      	mov	r1, r2
 80007f8:	2201      	movs	r2, #1
 80007fa:	408a      	lsls	r2, r1
 80007fc:	4611      	mov	r1, r2
 80007fe:	4a25      	ldr	r2, [pc, #148]	; (8000894 <Update_EXTI+0x1c8>)
 8000800:	430b      	orrs	r3, r1
 8000802:	6093      	str	r3, [r2, #8]
		EXTI->FTSR |= (1<<EXTI_Config->EXIT_PIN.ETI_InputLineNumber) ;
 8000804:	4b23      	ldr	r3, [pc, #140]	; (8000894 <Update_EXTI+0x1c8>)
 8000806:	68db      	ldr	r3, [r3, #12]
 8000808:	687a      	ldr	r2, [r7, #4]
 800080a:	8812      	ldrh	r2, [r2, #0]
 800080c:	4611      	mov	r1, r2
 800080e:	2201      	movs	r2, #1
 8000810:	408a      	lsls	r2, r1
 8000812:	4611      	mov	r1, r2
 8000814:	4a1f      	ldr	r2, [pc, #124]	; (8000894 <Update_EXTI+0x1c8>)
 8000816:	430b      	orrs	r3, r1
 8000818:	60d3      	str	r3, [r2, #12]
		break ;
 800081a:	bf00      	nop

	//===========================================================

	//4- Update IRQ Handling CALLBACK

	GP_IRQ_CallBack[EXTI_Config->EXIT_PIN.ETI_InputLineNumber] = EXTI_Config->P_IRQ_CallBack ;
 800081c:	687b      	ldr	r3, [r7, #4]
 800081e:	881b      	ldrh	r3, [r3, #0]
 8000820:	4619      	mov	r1, r3
 8000822:	687b      	ldr	r3, [r7, #4]
 8000824:	691b      	ldr	r3, [r3, #16]
 8000826:	4a1c      	ldr	r2, [pc, #112]	; (8000898 <Update_EXTI+0x1cc>)
 8000828:	f842 3021 	str.w	r3, [r2, r1, lsl #2]


	//=============================================
	//5- Enable/Disable IRQ EXTI and NVIC

	if (EXTI_Config->IRQ_EN == EXTI_IRQ_ENABLE )
 800082c:	687b      	ldr	r3, [r7, #4]
 800082e:	7b5b      	ldrb	r3, [r3, #13]
 8000830:	2b01      	cmp	r3, #1
 8000832:	d110      	bne.n	8000856 <Update_EXTI+0x18a>
	{
		EXTI->IMR |=  (1<<EXTI_Config->EXIT_PIN.ETI_InputLineNumber) ;
 8000834:	4b17      	ldr	r3, [pc, #92]	; (8000894 <Update_EXTI+0x1c8>)
 8000836:	681b      	ldr	r3, [r3, #0]
 8000838:	687a      	ldr	r2, [r7, #4]
 800083a:	8812      	ldrh	r2, [r2, #0]
 800083c:	4611      	mov	r1, r2
 800083e:	2201      	movs	r2, #1
 8000840:	408a      	lsls	r2, r1
 8000842:	4611      	mov	r1, r2
 8000844:	4a13      	ldr	r2, [pc, #76]	; (8000894 <Update_EXTI+0x1c8>)
 8000846:	430b      	orrs	r3, r1
 8000848:	6013      	str	r3, [r2, #0]
		Enable_NVIC ( EXTI_Config->EXIT_PIN.ETI_InputLineNumber);
 800084a:	687b      	ldr	r3, [r7, #4]
 800084c:	881b      	ldrh	r3, [r3, #0]
 800084e:	4618      	mov	r0, r3
 8000850:	f7ff fe70 	bl	8000534 <Enable_NVIC>
		Disable_NVIC ( EXTI_Config->EXIT_PIN.ETI_InputLineNumber);

	}


}
 8000854:	e010      	b.n	8000878 <Update_EXTI+0x1ac>
		EXTI->IMR &= ~(1<<EXTI_Config->EXIT_PIN.ETI_InputLineNumber) ;
 8000856:	4b0f      	ldr	r3, [pc, #60]	; (8000894 <Update_EXTI+0x1c8>)
 8000858:	681b      	ldr	r3, [r3, #0]
 800085a:	687a      	ldr	r2, [r7, #4]
 800085c:	8812      	ldrh	r2, [r2, #0]
 800085e:	4611      	mov	r1, r2
 8000860:	2201      	movs	r2, #1
 8000862:	408a      	lsls	r2, r1
 8000864:	43d2      	mvns	r2, r2
 8000866:	4611      	mov	r1, r2
 8000868:	4a0a      	ldr	r2, [pc, #40]	; (8000894 <Update_EXTI+0x1c8>)
 800086a:	400b      	ands	r3, r1
 800086c:	6013      	str	r3, [r2, #0]
		Disable_NVIC ( EXTI_Config->EXIT_PIN.ETI_InputLineNumber);
 800086e:	687b      	ldr	r3, [r7, #4]
 8000870:	881b      	ldrh	r3, [r3, #0]
 8000872:	4618      	mov	r0, r3
 8000874:	f7ff fec4 	bl	8000600 <Disable_NVIC>
}
 8000878:	bf00      	nop
 800087a:	3710      	adds	r7, #16
 800087c:	46bd      	mov	sp, r7
 800087e:	bd80      	pop	{r7, pc}
 8000880:	40010000 	.word	0x40010000
 8000884:	40010800 	.word	0x40010800
 8000888:	40010c00 	.word	0x40010c00
 800088c:	40011000 	.word	0x40011000
 8000890:	40011400 	.word	0x40011400
 8000894:	40010400 	.word	0x40010400
 8000898:	20000024 	.word	0x20000024

0800089c <MCAL_EXTI_GPIO_Init>:
 * 					but LQFP48 package has only GPIO A,B PART of C/D exported as external PINS from the MCU
 * 					-Also Mandatory to Enable RCC for AFIO and the corresponding GPIO
 */

void MCAL_EXTI_GPIO_Init(EXTI_PinConfig_t * EXTI_Config)
{
 800089c:	b580      	push	{r7, lr}
 800089e:	b082      	sub	sp, #8
 80008a0:	af00      	add	r7, sp, #0
 80008a2:	6078      	str	r0, [r7, #4]

	Update_EXTI(EXTI_Config) ;
 80008a4:	6878      	ldr	r0, [r7, #4]
 80008a6:	f7ff ff11 	bl	80006cc <Update_EXTI>

}
 80008aa:	bf00      	nop
 80008ac:	3708      	adds	r7, #8
 80008ae:	46bd      	mov	sp, r7
 80008b0:	bd80      	pop	{r7, pc}
	...

080008b4 <EXTI0_IRQHandler>:
 *==================		APIs Functions Definitions		=============
 * ========================================================================
*/

void EXTI0_IRQHandler (void)
{
 80008b4:	b580      	push	{r7, lr}
 80008b6:	af00      	add	r7, sp, #0
	//cleared by writing a 1 into the bit Pending register (EXTI_PR)
	EXTI->PR |= (1<<0) ;
 80008b8:	4b05      	ldr	r3, [pc, #20]	; (80008d0 <EXTI0_IRQHandler+0x1c>)
 80008ba:	695b      	ldr	r3, [r3, #20]
 80008bc:	4a04      	ldr	r2, [pc, #16]	; (80008d0 <EXTI0_IRQHandler+0x1c>)
 80008be:	f043 0301 	orr.w	r3, r3, #1
 80008c2:	6153      	str	r3, [r2, #20]
	//CALL IRQ_CALL
	GP_IRQ_CallBack[0]();
 80008c4:	4b03      	ldr	r3, [pc, #12]	; (80008d4 <EXTI0_IRQHandler+0x20>)
 80008c6:	681b      	ldr	r3, [r3, #0]
 80008c8:	4798      	blx	r3
}
 80008ca:	bf00      	nop
 80008cc:	bd80      	pop	{r7, pc}
 80008ce:	bf00      	nop
 80008d0:	40010400 	.word	0x40010400
 80008d4:	20000024 	.word	0x20000024

080008d8 <EXTI1_IRQHandler>:

void EXTI1_IRQHandler (void)
{
 80008d8:	b580      	push	{r7, lr}
 80008da:	af00      	add	r7, sp, #0
	EXTI->PR |= (1<<1);
 80008dc:	4b05      	ldr	r3, [pc, #20]	; (80008f4 <EXTI1_IRQHandler+0x1c>)
 80008de:	695b      	ldr	r3, [r3, #20]
 80008e0:	4a04      	ldr	r2, [pc, #16]	; (80008f4 <EXTI1_IRQHandler+0x1c>)
 80008e2:	f043 0302 	orr.w	r3, r3, #2
 80008e6:	6153      	str	r3, [r2, #20]
	GP_IRQ_CallBack[1]();
 80008e8:	4b03      	ldr	r3, [pc, #12]	; (80008f8 <EXTI1_IRQHandler+0x20>)
 80008ea:	685b      	ldr	r3, [r3, #4]
 80008ec:	4798      	blx	r3
}
 80008ee:	bf00      	nop
 80008f0:	bd80      	pop	{r7, pc}
 80008f2:	bf00      	nop
 80008f4:	40010400 	.word	0x40010400
 80008f8:	20000024 	.word	0x20000024

080008fc <EXTI2_IRQHandler>:

void EXTI2_IRQHandler (void)
{
 80008fc:	b580      	push	{r7, lr}
 80008fe:	af00      	add	r7, sp, #0
	EXTI->PR |= (1<<2) ;
 8000900:	4b05      	ldr	r3, [pc, #20]	; (8000918 <EXTI2_IRQHandler+0x1c>)
 8000902:	695b      	ldr	r3, [r3, #20]
 8000904:	4a04      	ldr	r2, [pc, #16]	; (8000918 <EXTI2_IRQHandler+0x1c>)
 8000906:	f043 0304 	orr.w	r3, r3, #4
 800090a:	6153      	str	r3, [r2, #20]
	GP_IRQ_CallBack[2]();
 800090c:	4b03      	ldr	r3, [pc, #12]	; (800091c <EXTI2_IRQHandler+0x20>)
 800090e:	689b      	ldr	r3, [r3, #8]
 8000910:	4798      	blx	r3
}
 8000912:	bf00      	nop
 8000914:	bd80      	pop	{r7, pc}
 8000916:	bf00      	nop
 8000918:	40010400 	.word	0x40010400
 800091c:	20000024 	.word	0x20000024

08000920 <EXTI3_IRQHandler>:

void EXTI3_IRQHandler (void)
{
 8000920:	b580      	push	{r7, lr}
 8000922:	af00      	add	r7, sp, #0
	EXTI->PR |= (1<<3) ;
 8000924:	4b05      	ldr	r3, [pc, #20]	; (800093c <EXTI3_IRQHandler+0x1c>)
 8000926:	695b      	ldr	r3, [r3, #20]
 8000928:	4a04      	ldr	r2, [pc, #16]	; (800093c <EXTI3_IRQHandler+0x1c>)
 800092a:	f043 0308 	orr.w	r3, r3, #8
 800092e:	6153      	str	r3, [r2, #20]
	GP_IRQ_CallBack[3]();
 8000930:	4b03      	ldr	r3, [pc, #12]	; (8000940 <EXTI3_IRQHandler+0x20>)
 8000932:	68db      	ldr	r3, [r3, #12]
 8000934:	4798      	blx	r3
}
 8000936:	bf00      	nop
 8000938:	bd80      	pop	{r7, pc}
 800093a:	bf00      	nop
 800093c:	40010400 	.word	0x40010400
 8000940:	20000024 	.word	0x20000024

08000944 <EXTI4_IRQHandler>:

void EXTI4_IRQHandler (void)
{
 8000944:	b580      	push	{r7, lr}
 8000946:	af00      	add	r7, sp, #0
	EXTI->PR |= (1<<4) ;
 8000948:	4b05      	ldr	r3, [pc, #20]	; (8000960 <EXTI4_IRQHandler+0x1c>)
 800094a:	695b      	ldr	r3, [r3, #20]
 800094c:	4a04      	ldr	r2, [pc, #16]	; (8000960 <EXTI4_IRQHandler+0x1c>)
 800094e:	f043 0310 	orr.w	r3, r3, #16
 8000952:	6153      	str	r3, [r2, #20]
	GP_IRQ_CallBack[4]();
 8000954:	4b03      	ldr	r3, [pc, #12]	; (8000964 <EXTI4_IRQHandler+0x20>)
 8000956:	691b      	ldr	r3, [r3, #16]
 8000958:	4798      	blx	r3
}
 800095a:	bf00      	nop
 800095c:	bd80      	pop	{r7, pc}
 800095e:	bf00      	nop
 8000960:	40010400 	.word	0x40010400
 8000964:	20000024 	.word	0x20000024

08000968 <EXTI9_5_IRQHandler>:

void EXTI9_5_IRQHandler (void)
{
 8000968:	b580      	push	{r7, lr}
 800096a:	b082      	sub	sp, #8
 800096c:	af00      	add	r7, sp, #0

	uint8_t i = 5 ;
 800096e:	2305      	movs	r3, #5
 8000970:	71fb      	strb	r3, [r7, #7]
	while(!(EXTI->PR &=1<<i))
 8000972:	e002      	b.n	800097a <EXTI9_5_IRQHandler+0x12>
	{
		i++ ;
 8000974:	79fb      	ldrb	r3, [r7, #7]
 8000976:	3301      	adds	r3, #1
 8000978:	71fb      	strb	r3, [r7, #7]
	while(!(EXTI->PR &=1<<i))
 800097a:	4b0f      	ldr	r3, [pc, #60]	; (80009b8 <EXTI9_5_IRQHandler+0x50>)
 800097c:	695b      	ldr	r3, [r3, #20]
 800097e:	79fa      	ldrb	r2, [r7, #7]
 8000980:	2101      	movs	r1, #1
 8000982:	fa01 f202 	lsl.w	r2, r1, r2
 8000986:	4611      	mov	r1, r2
 8000988:	4a0b      	ldr	r2, [pc, #44]	; (80009b8 <EXTI9_5_IRQHandler+0x50>)
 800098a:	400b      	ands	r3, r1
 800098c:	6153      	str	r3, [r2, #20]
 800098e:	2b00      	cmp	r3, #0
 8000990:	d0f0      	beq.n	8000974 <EXTI9_5_IRQHandler+0xc>
	}
	EXTI->PR |= (1<<i);
 8000992:	4b09      	ldr	r3, [pc, #36]	; (80009b8 <EXTI9_5_IRQHandler+0x50>)
 8000994:	695b      	ldr	r3, [r3, #20]
 8000996:	79fa      	ldrb	r2, [r7, #7]
 8000998:	2101      	movs	r1, #1
 800099a:	fa01 f202 	lsl.w	r2, r1, r2
 800099e:	4611      	mov	r1, r2
 80009a0:	4a05      	ldr	r2, [pc, #20]	; (80009b8 <EXTI9_5_IRQHandler+0x50>)
 80009a2:	430b      	orrs	r3, r1
 80009a4:	6153      	str	r3, [r2, #20]
	GP_IRQ_CallBack[i]() ;
 80009a6:	79fb      	ldrb	r3, [r7, #7]
 80009a8:	4a04      	ldr	r2, [pc, #16]	; (80009bc <EXTI9_5_IRQHandler+0x54>)
 80009aa:	f852 3023 	ldr.w	r3, [r2, r3, lsl #2]
 80009ae:	4798      	blx	r3

}
 80009b0:	bf00      	nop
 80009b2:	3708      	adds	r7, #8
 80009b4:	46bd      	mov	sp, r7
 80009b6:	bd80      	pop	{r7, pc}
 80009b8:	40010400 	.word	0x40010400
 80009bc:	20000024 	.word	0x20000024

080009c0 <EXTI15_10_IRQHandler>:

void EXTI15_10_IRQHandler (void)
{
 80009c0:	b580      	push	{r7, lr}
 80009c2:	b082      	sub	sp, #8
 80009c4:	af00      	add	r7, sp, #0
	uint8_t i = 10 ;
 80009c6:	230a      	movs	r3, #10
 80009c8:	71fb      	strb	r3, [r7, #7]
	while(!(EXTI->PR &=1<<i))
 80009ca:	e002      	b.n	80009d2 <EXTI15_10_IRQHandler+0x12>
	{
		i++ ;
 80009cc:	79fb      	ldrb	r3, [r7, #7]
 80009ce:	3301      	adds	r3, #1
 80009d0:	71fb      	strb	r3, [r7, #7]
	while(!(EXTI->PR &=1<<i))
 80009d2:	4b0f      	ldr	r3, [pc, #60]	; (8000a10 <EXTI15_10_IRQHandler+0x50>)
 80009d4:	695b      	ldr	r3, [r3, #20]
 80009d6:	79fa      	ldrb	r2, [r7, #7]
 80009d8:	2101      	movs	r1, #1
 80009da:	fa01 f202 	lsl.w	r2, r1, r2
 80009de:	4611      	mov	r1, r2
 80009e0:	4a0b      	ldr	r2, [pc, #44]	; (8000a10 <EXTI15_10_IRQHandler+0x50>)
 80009e2:	400b      	ands	r3, r1
 80009e4:	6153      	str	r3, [r2, #20]
 80009e6:	2b00      	cmp	r3, #0
 80009e8:	d0f0      	beq.n	80009cc <EXTI15_10_IRQHandler+0xc>
	}
	EXTI->PR |= (1<<i);
 80009ea:	4b09      	ldr	r3, [pc, #36]	; (8000a10 <EXTI15_10_IRQHandler+0x50>)
 80009ec:	695b      	ldr	r3, [r3, #20]
 80009ee:	79fa      	ldrb	r2, [r7, #7]
 80009f0:	2101      	movs	r1, #1
 80009f2:	fa01 f202 	lsl.w	r2, r1, r2
 80009f6:	4611      	mov	r1, r2
 80009f8:	4a05      	ldr	r2, [pc, #20]	; (8000a10 <EXTI15_10_IRQHandler+0x50>)
 80009fa:	430b      	orrs	r3, r1
 80009fc:	6153      	str	r3, [r2, #20]
	GP_IRQ_CallBack[i]() ;
 80009fe:	79fb      	ldrb	r3, [r7, #7]
 8000a00:	4a04      	ldr	r2, [pc, #16]	; (8000a14 <EXTI15_10_IRQHandler+0x54>)
 8000a02:	f852 3023 	ldr.w	r3, [r2, r3, lsl #2]
 8000a06:	4798      	blx	r3

}
 8000a08:	bf00      	nop
 8000a0a:	3708      	adds	r7, #8
 8000a0c:	46bd      	mov	sp, r7
 8000a0e:	bd80      	pop	{r7, pc}
 8000a10:	40010400 	.word	0x40010400
 8000a14:	20000024 	.word	0x20000024

08000a18 <Get_CRLH_Position>:
  * 					 but LQFP48 PACKAGE has only GPIO A,B part of C,D exported as external pins from the MCU
  */
#include "Stm32_F103C6_gpio_driver.h"

uint8_t Get_CRLH_Position(uint16_t PinNumber)
{
 8000a18:	b480      	push	{r7}
 8000a1a:	b085      	sub	sp, #20
 8000a1c:	af00      	add	r7, sp, #0
 8000a1e:	4603      	mov	r3, r0
 8000a20:	80fb      	strh	r3, [r7, #6]
	volatile uint8_t PinOrder = 0 ;
 8000a22:	2300      	movs	r3, #0
 8000a24:	73fb      	strb	r3, [r7, #15]
	while(!(PinNumber&0x01))
 8000a26:	e007      	b.n	8000a38 <Get_CRLH_Position+0x20>
	{
		PinOrder ++ ;
 8000a28:	7bfb      	ldrb	r3, [r7, #15]
 8000a2a:	b2db      	uxtb	r3, r3
 8000a2c:	3301      	adds	r3, #1
 8000a2e:	b2db      	uxtb	r3, r3
 8000a30:	73fb      	strb	r3, [r7, #15]
		PinNumber >>= 1 ;
 8000a32:	88fb      	ldrh	r3, [r7, #6]
 8000a34:	085b      	lsrs	r3, r3, #1
 8000a36:	80fb      	strh	r3, [r7, #6]
	while(!(PinNumber&0x01))
 8000a38:	88fb      	ldrh	r3, [r7, #6]
 8000a3a:	f003 0301 	and.w	r3, r3, #1
 8000a3e:	2b00      	cmp	r3, #0
 8000a40:	d0f2      	beq.n	8000a28 <Get_CRLH_Position+0x10>
	}

	PinNumber = PinOrder ;
 8000a42:	7bfb      	ldrb	r3, [r7, #15]
 8000a44:	b2db      	uxtb	r3, r3
 8000a46:	80fb      	strh	r3, [r7, #6]
	volatile uint16_t Position  = (PinNumber < 8)? PinNumber * 4 :(PinNumber - 8) * 4 ;
 8000a48:	88fb      	ldrh	r3, [r7, #6]
 8000a4a:	2b07      	cmp	r3, #7
 8000a4c:	d803      	bhi.n	8000a56 <Get_CRLH_Position+0x3e>
 8000a4e:	88fb      	ldrh	r3, [r7, #6]
 8000a50:	009b      	lsls	r3, r3, #2
 8000a52:	b29b      	uxth	r3, r3
 8000a54:	e006      	b.n	8000a64 <Get_CRLH_Position+0x4c>
 8000a56:	88fb      	ldrh	r3, [r7, #6]
 8000a58:	f503 537f 	add.w	r3, r3, #16320	; 0x3fc0
 8000a5c:	3338      	adds	r3, #56	; 0x38
 8000a5e:	b29b      	uxth	r3, r3
 8000a60:	009b      	lsls	r3, r3, #2
 8000a62:	b29b      	uxth	r3, r3
 8000a64:	81bb      	strh	r3, [r7, #12]
	return Position ;
 8000a66:	89bb      	ldrh	r3, [r7, #12]
 8000a68:	b29b      	uxth	r3, r3
 8000a6a:	b2db      	uxtb	r3, r3
}
 8000a6c:	4618      	mov	r0, r3
 8000a6e:	3714      	adds	r7, #20
 8000a70:	46bd      	mov	sp, r7
 8000a72:	bc80      	pop	{r7}
 8000a74:	4770      	bx	lr

08000a76 <MCAL_GPIO_Init>:
 * @retval 			-none
 * Note				-Stm32F103C6 MCU has GPIO A,B,C,D,E Modules
 * 					but LQFP48 package has only GPIO A,B PART of C/D exported as external PINS from the MCU
 */
void MCAL_GPIO_Init(GPIO_TypeDef *GPIOx , GPIO_PINCONFIG_t *PinConfig)
{
 8000a76:	b590      	push	{r4, r7, lr}
 8000a78:	b085      	sub	sp, #20
 8000a7a:	af00      	add	r7, sp, #0
 8000a7c:	6078      	str	r0, [r7, #4]
 8000a7e:	6039      	str	r1, [r7, #0]
	//Port configuration register low (GPIOx_CRL) Configure PINS from 0 >>> 7
	//Port configuration register High (GPIOx_CRH) Configure PINS from 8 >>> 15

	volatile uint32_t *ConfigRegister= NULL ;
 8000a80:	2300      	movs	r3, #0
 8000a82:	60fb      	str	r3, [r7, #12]
	volatile uint8_t Pin_Config = 0 ;
 8000a84:	2300      	movs	r3, #0
 8000a86:	72fb      	strb	r3, [r7, #11]
	ConfigRegister = (PinConfig->GPIO_PinNumber < GPIO_PIN_8 )? &GPIOx->CRL :&GPIOx->CRH ;
 8000a88:	683b      	ldr	r3, [r7, #0]
 8000a8a:	881b      	ldrh	r3, [r3, #0]
 8000a8c:	2bff      	cmp	r3, #255	; 0xff
 8000a8e:	d801      	bhi.n	8000a94 <MCAL_GPIO_Init+0x1e>
 8000a90:	687b      	ldr	r3, [r7, #4]
 8000a92:	e001      	b.n	8000a98 <MCAL_GPIO_Init+0x22>
 8000a94:	687b      	ldr	r3, [r7, #4]
 8000a96:	3304      	adds	r3, #4
 8000a98:	60fb      	str	r3, [r7, #12]

	//clear CNF8[1:0] MODE8[1:0]

	(*ConfigRegister) &= ~(0xF << Get_CRLH_Position(PinConfig->GPIO_PinNumber)) ;
 8000a9a:	683b      	ldr	r3, [r7, #0]
 8000a9c:	881b      	ldrh	r3, [r3, #0]
 8000a9e:	4618      	mov	r0, r3
 8000aa0:	f7ff ffba 	bl	8000a18 <Get_CRLH_Position>
 8000aa4:	4603      	mov	r3, r0
 8000aa6:	461a      	mov	r2, r3
 8000aa8:	230f      	movs	r3, #15
 8000aaa:	4093      	lsls	r3, r2
 8000aac:	43da      	mvns	r2, r3
 8000aae:	68fb      	ldr	r3, [r7, #12]
 8000ab0:	681b      	ldr	r3, [r3, #0]
 8000ab2:	401a      	ands	r2, r3
 8000ab4:	68fb      	ldr	r3, [r7, #12]
 8000ab6:	601a      	str	r2, [r3, #0]

	//if Pin is output
	if (PinConfig->GPIO_MODE == GPIO_MODE_OUTPUT_OD || PinConfig->GPIO_MODE == GPIO_MODE_OUTPUT_PP || PinConfig->GPIO_MODE == GPIO_MODE_AF_OUTPUT_OD || PinConfig->GPIO_MODE == GPIO_MODE_AF_OUTPUT_PU)
 8000ab8:	683b      	ldr	r3, [r7, #0]
 8000aba:	789b      	ldrb	r3, [r3, #2]
 8000abc:	2b05      	cmp	r3, #5
 8000abe:	d00b      	beq.n	8000ad8 <MCAL_GPIO_Init+0x62>
 8000ac0:	683b      	ldr	r3, [r7, #0]
 8000ac2:	789b      	ldrb	r3, [r3, #2]
 8000ac4:	2b04      	cmp	r3, #4
 8000ac6:	d007      	beq.n	8000ad8 <MCAL_GPIO_Init+0x62>
 8000ac8:	683b      	ldr	r3, [r7, #0]
 8000aca:	789b      	ldrb	r3, [r3, #2]
 8000acc:	2b07      	cmp	r3, #7
 8000ace:	d003      	beq.n	8000ad8 <MCAL_GPIO_Init+0x62>
 8000ad0:	683b      	ldr	r3, [r7, #0]
 8000ad2:	789b      	ldrb	r3, [r3, #2]
 8000ad4:	2b06      	cmp	r3, #6
 8000ad6:	d10f      	bne.n	8000af8 <MCAL_GPIO_Init+0x82>
	{
		Pin_Config = ((((PinConfig->GPIO_MODE - 4) << 2 ) | (PinConfig->GPIO_OUTPUT_SPEED))) & 0x0F ;
 8000ad8:	683b      	ldr	r3, [r7, #0]
 8000ada:	789b      	ldrb	r3, [r3, #2]
 8000adc:	3b04      	subs	r3, #4
 8000ade:	009b      	lsls	r3, r3, #2
 8000ae0:	b25a      	sxtb	r2, r3
 8000ae2:	683b      	ldr	r3, [r7, #0]
 8000ae4:	78db      	ldrb	r3, [r3, #3]
 8000ae6:	b25b      	sxtb	r3, r3
 8000ae8:	4313      	orrs	r3, r2
 8000aea:	b25b      	sxtb	r3, r3
 8000aec:	b2db      	uxtb	r3, r3
 8000aee:	f003 030f 	and.w	r3, r3, #15
 8000af2:	b2db      	uxtb	r3, r3
 8000af4:	72fb      	strb	r3, [r7, #11]
 8000af6:	e02d      	b.n	8000b54 <MCAL_GPIO_Init+0xde>
	}
	//if Pin is input
	else
	{
		//if  analog mode of input floating
		if (PinConfig->GPIO_MODE == GPIO_MODE_Analog || PinConfig->GPIO_MODE == GPIO_MODE_INPUT_FLO) //if  analog mode of input floating
 8000af8:	683b      	ldr	r3, [r7, #0]
 8000afa:	789b      	ldrb	r3, [r3, #2]
 8000afc:	2b00      	cmp	r3, #0
 8000afe:	d003      	beq.n	8000b08 <MCAL_GPIO_Init+0x92>
 8000b00:	683b      	ldr	r3, [r7, #0]
 8000b02:	789b      	ldrb	r3, [r3, #2]
 8000b04:	2b01      	cmp	r3, #1
 8000b06:	d108      	bne.n	8000b1a <MCAL_GPIO_Init+0xa4>
		{
			Pin_Config = ((((PinConfig->GPIO_MODE << 2 )) | 0x0) & 0x0F) ;
 8000b08:	683b      	ldr	r3, [r7, #0]
 8000b0a:	789b      	ldrb	r3, [r3, #2]
 8000b0c:	009b      	lsls	r3, r3, #2
 8000b0e:	b2db      	uxtb	r3, r3
 8000b10:	f003 030f 	and.w	r3, r3, #15
 8000b14:	b2db      	uxtb	r3, r3
 8000b16:	72fb      	strb	r3, [r7, #11]
 8000b18:	e01c      	b.n	8000b54 <MCAL_GPIO_Init+0xde>
		}
		else if(PinConfig->GPIO_MODE == GPIO_MODE_AF_INPUT) //if mode is Alternative input it considered as input floating
 8000b1a:	683b      	ldr	r3, [r7, #0]
 8000b1c:	789b      	ldrb	r3, [r3, #2]
 8000b1e:	2b08      	cmp	r3, #8
 8000b20:	d102      	bne.n	8000b28 <MCAL_GPIO_Init+0xb2>
		{
			Pin_Config = ((((GPIO_MODE_INPUT_FLO << 2 )) | 0x0) & 0x0F) ;
 8000b22:	2304      	movs	r3, #4
 8000b24:	72fb      	strb	r3, [r7, #11]
 8000b26:	e015      	b.n	8000b54 <MCAL_GPIO_Init+0xde>
		}
		else //then mode is PP or PU
		{
			Pin_Config = ((((GPIO_MODE_INPUT_PU << 2 )) | 0x0) & 0x0F) ;
 8000b28:	2308      	movs	r3, #8
 8000b2a:	72fb      	strb	r3, [r7, #11]
			if(PinConfig->GPIO_MODE == GPIO_MODE_INPUT_PU)
 8000b2c:	683b      	ldr	r3, [r7, #0]
 8000b2e:	789b      	ldrb	r3, [r3, #2]
 8000b30:	2b02      	cmp	r3, #2
 8000b32:	d107      	bne.n	8000b44 <MCAL_GPIO_Init+0xce>
			{
				GPIOx->ODR |= (PinConfig->GPIO_PinNumber) ;
 8000b34:	687b      	ldr	r3, [r7, #4]
 8000b36:	68db      	ldr	r3, [r3, #12]
 8000b38:	683a      	ldr	r2, [r7, #0]
 8000b3a:	8812      	ldrh	r2, [r2, #0]
 8000b3c:	431a      	orrs	r2, r3
 8000b3e:	687b      	ldr	r3, [r7, #4]
 8000b40:	60da      	str	r2, [r3, #12]
 8000b42:	e007      	b.n	8000b54 <MCAL_GPIO_Init+0xde>
			}
			else
			{
				GPIOx->ODR &= ~(PinConfig->GPIO_PinNumber);
 8000b44:	687b      	ldr	r3, [r7, #4]
 8000b46:	68db      	ldr	r3, [r3, #12]
 8000b48:	683a      	ldr	r2, [r7, #0]
 8000b4a:	8812      	ldrh	r2, [r2, #0]
 8000b4c:	43d2      	mvns	r2, r2
 8000b4e:	401a      	ands	r2, r3
 8000b50:	687b      	ldr	r3, [r7, #4]
 8000b52:	60da      	str	r2, [r3, #12]
			}
		}
	}

	//write on the CRL or CRH
	(*ConfigRegister) |= (Pin_Config << Get_CRLH_Position(PinConfig->GPIO_PinNumber)) ;
 8000b54:	7afb      	ldrb	r3, [r7, #11]
 8000b56:	b2db      	uxtb	r3, r3
 8000b58:	461c      	mov	r4, r3
 8000b5a:	683b      	ldr	r3, [r7, #0]
 8000b5c:	881b      	ldrh	r3, [r3, #0]
 8000b5e:	4618      	mov	r0, r3
 8000b60:	f7ff ff5a 	bl	8000a18 <Get_CRLH_Position>
 8000b64:	4603      	mov	r3, r0
 8000b66:	fa04 f203 	lsl.w	r2, r4, r3
 8000b6a:	68fb      	ldr	r3, [r7, #12]
 8000b6c:	681b      	ldr	r3, [r3, #0]
 8000b6e:	431a      	orrs	r2, r3
 8000b70:	68fb      	ldr	r3, [r7, #12]
 8000b72:	601a      	str	r2, [r3, #0]
}
 8000b74:	bf00      	nop
 8000b76:	3714      	adds	r7, #20
 8000b78:	46bd      	mov	sp, r7
 8000b7a:	bd90      	pop	{r4, r7, pc}

08000b7c <MCAL_GPIO_Init_Port_Range>:




void MCAL_GPIO_Init_Port_Range(GPIO_TypeDef *GPIOx , GPIO_PINCONFIG_t *PinConfig, uint8_t PinCount)
{
 8000b7c:	b5b0      	push	{r4, r5, r7, lr}
 8000b7e:	b090      	sub	sp, #64	; 0x40
 8000b80:	af00      	add	r7, sp, #0
 8000b82:	60f8      	str	r0, [r7, #12]
 8000b84:	60b9      	str	r1, [r7, #8]
 8000b86:	4613      	mov	r3, r2
 8000b88:	71fb      	strb	r3, [r7, #7]
	GPIO_PINCONFIG_t PinCfg  = *PinConfig ;
 8000b8a:	68ba      	ldr	r2, [r7, #8]
 8000b8c:	f107 0338 	add.w	r3, r7, #56	; 0x38
 8000b90:	6810      	ldr	r0, [r2, #0]
 8000b92:	6018      	str	r0, [r3, #0]
	volatile uint8_t StartingPin = 0 ;
 8000b94:	2300      	movs	r3, #0
 8000b96:	f887 3037 	strb.w	r3, [r7, #55]	; 0x37
	uint8_t i ;

	uint16_t PinsList[16] = {GPIO_PIN_0,GPIO_PIN_1,GPIO_PIN_2,GPIO_PIN_3,
 8000b9a:	4b20      	ldr	r3, [pc, #128]	; (8000c1c <MCAL_GPIO_Init_Port_Range+0xa0>)
 8000b9c:	f107 0414 	add.w	r4, r7, #20
 8000ba0:	461d      	mov	r5, r3
 8000ba2:	cd0f      	ldmia	r5!, {r0, r1, r2, r3}
 8000ba4:	c40f      	stmia	r4!, {r0, r1, r2, r3}
 8000ba6:	e895 000f 	ldmia.w	r5, {r0, r1, r2, r3}
 8000baa:	e884 000f 	stmia.w	r4, {r0, r1, r2, r3}
							GPIO_PIN_4,GPIO_PIN_5,GPIO_PIN_6,GPIO_PIN_7,
							GPIO_PIN_8,GPIO_PIN_9,GPIO_PIN_10,GPIO_PIN_11,
							GPIO_PIN_12,GPIO_PIN_13,GPIO_PIN_14,GPIO_PIN_15};


	uint16_t PinNumber = PinConfig->GPIO_PinNumber ;
 8000bae:	68bb      	ldr	r3, [r7, #8]
 8000bb0:	881b      	ldrh	r3, [r3, #0]
 8000bb2:	87bb      	strh	r3, [r7, #60]	; 0x3c
	while(!(PinNumber&0x01))
 8000bb4:	e009      	b.n	8000bca <MCAL_GPIO_Init_Port_Range+0x4e>
	{
		StartingPin++ ;
 8000bb6:	f897 3037 	ldrb.w	r3, [r7, #55]	; 0x37
 8000bba:	b2db      	uxtb	r3, r3
 8000bbc:	3301      	adds	r3, #1
 8000bbe:	b2db      	uxtb	r3, r3
 8000bc0:	f887 3037 	strb.w	r3, [r7, #55]	; 0x37
		PinNumber >>= 1 ;
 8000bc4:	8fbb      	ldrh	r3, [r7, #60]	; 0x3c
 8000bc6:	085b      	lsrs	r3, r3, #1
 8000bc8:	87bb      	strh	r3, [r7, #60]	; 0x3c
	while(!(PinNumber&0x01))
 8000bca:	8fbb      	ldrh	r3, [r7, #60]	; 0x3c
 8000bcc:	f003 0301 	and.w	r3, r3, #1
 8000bd0:	2b00      	cmp	r3, #0
 8000bd2:	d0f0      	beq.n	8000bb6 <MCAL_GPIO_Init_Port_Range+0x3a>
	}

	for(i=StartingPin; PinCount>0; PinCount--)
 8000bd4:	f897 3037 	ldrb.w	r3, [r7, #55]	; 0x37
 8000bd8:	f887 303f 	strb.w	r3, [r7, #63]	; 0x3f
 8000bdc:	e016      	b.n	8000c0c <MCAL_GPIO_Init_Port_Range+0x90>
	{
		PinCfg.GPIO_PinNumber = PinsList[i];
 8000bde:	f897 303f 	ldrb.w	r3, [r7, #63]	; 0x3f
 8000be2:	005b      	lsls	r3, r3, #1
 8000be4:	f107 0240 	add.w	r2, r7, #64	; 0x40
 8000be8:	4413      	add	r3, r2
 8000bea:	f833 3c2c 	ldrh.w	r3, [r3, #-44]
 8000bee:	873b      	strh	r3, [r7, #56]	; 0x38
		MCAL_GPIO_Init(GPIOx, &PinCfg);
 8000bf0:	f107 0338 	add.w	r3, r7, #56	; 0x38
 8000bf4:	4619      	mov	r1, r3
 8000bf6:	68f8      	ldr	r0, [r7, #12]
 8000bf8:	f7ff ff3d 	bl	8000a76 <MCAL_GPIO_Init>
		i++ ;
 8000bfc:	f897 303f 	ldrb.w	r3, [r7, #63]	; 0x3f
 8000c00:	3301      	adds	r3, #1
 8000c02:	f887 303f 	strb.w	r3, [r7, #63]	; 0x3f
	for(i=StartingPin; PinCount>0; PinCount--)
 8000c06:	79fb      	ldrb	r3, [r7, #7]
 8000c08:	3b01      	subs	r3, #1
 8000c0a:	71fb      	strb	r3, [r7, #7]
 8000c0c:	79fb      	ldrb	r3, [r7, #7]
 8000c0e:	2b00      	cmp	r3, #0
 8000c10:	d1e5      	bne.n	8000bde <MCAL_GPIO_Init_Port_Range+0x62>

	}

}
 8000c12:	bf00      	nop
 8000c14:	3740      	adds	r7, #64	; 0x40
 8000c16:	46bd      	mov	sp, r7
 8000c18:	bdb0      	pop	{r4, r5, r7, pc}
 8000c1a:	bf00      	nop
 8000c1c:	08000cf4 	.word	0x08000cf4

08000c20 <MCAL_GPIO_WritePin>:
 * @param [in] 		-PinNumber : to specify which pin to write the value on the selected port
 * @param [in] 		-PinValue  : value to be written on the specified pin
 * Note				-none
 */
void MCAL_GPIO_WritePin(GPIO_TypeDef *GPIOx , uint16_t PinNumber , uint8_t PinValue)
{
 8000c20:	b480      	push	{r7}
 8000c22:	b083      	sub	sp, #12
 8000c24:	af00      	add	r7, sp, #0
 8000c26:	6078      	str	r0, [r7, #4]
 8000c28:	460b      	mov	r3, r1
 8000c2a:	807b      	strh	r3, [r7, #2]
 8000c2c:	4613      	mov	r3, r2
 8000c2e:	707b      	strb	r3, [r7, #1]
	if (PinValue != (uint8_t)GPIO_PIN_RESET)
 8000c30:	787b      	ldrb	r3, [r7, #1]
 8000c32:	2b00      	cmp	r3, #0
 8000c34:	d003      	beq.n	8000c3e <MCAL_GPIO_WritePin+0x1e>
	{
		//GPIOx->ODR |= PinNumber ;
		//or
		GPIOx->BSRR = PinNumber ;
 8000c36:	887a      	ldrh	r2, [r7, #2]
 8000c38:	687b      	ldr	r3, [r7, #4]
 8000c3a:	611a      	str	r2, [r3, #16]
	{
		//GPIOx->ODR &= ~PinNumber;
		//or
		GPIOx->BRR = PinNumber ;
	}
}
 8000c3c:	e002      	b.n	8000c44 <MCAL_GPIO_WritePin+0x24>
		GPIOx->BRR = PinNumber ;
 8000c3e:	887a      	ldrh	r2, [r7, #2]
 8000c40:	687b      	ldr	r3, [r7, #4]
 8000c42:	615a      	str	r2, [r3, #20]
}
 8000c44:	bf00      	nop
 8000c46:	370c      	adds	r7, #12
 8000c48:	46bd      	mov	sp, r7
 8000c4a:	bc80      	pop	{r7}
 8000c4c:	4770      	bx	lr

08000c4e <MCAL_GPIO_WritePort>:
 * @param [in] 		- PortValue : value to be written on the specified port
 * @retval 			- none
 * Note				-none
 */
void MCAL_GPIO_WritePort(GPIO_TypeDef *GPIOx , uint16_t PortValue)
{
 8000c4e:	b480      	push	{r7}
 8000c50:	b083      	sub	sp, #12
 8000c52:	af00      	add	r7, sp, #0
 8000c54:	6078      	str	r0, [r7, #4]
 8000c56:	460b      	mov	r3, r1
 8000c58:	807b      	strh	r3, [r7, #2]
	GPIOx->ODR = (uint32_t)PortValue ;
 8000c5a:	887a      	ldrh	r2, [r7, #2]
 8000c5c:	687b      	ldr	r3, [r7, #4]
 8000c5e:	60da      	str	r2, [r3, #12]
}
 8000c60:	bf00      	nop
 8000c62:	370c      	adds	r7, #12
 8000c64:	46bd      	mov	sp, r7
 8000c66:	bc80      	pop	{r7}
 8000c68:	4770      	bx	lr
	...

08000c6c <__libc_init_array>:
 8000c6c:	b570      	push	{r4, r5, r6, lr}
 8000c6e:	2500      	movs	r5, #0
 8000c70:	4e0c      	ldr	r6, [pc, #48]	; (8000ca4 <__libc_init_array+0x38>)
 8000c72:	4c0d      	ldr	r4, [pc, #52]	; (8000ca8 <__libc_init_array+0x3c>)
 8000c74:	1ba4      	subs	r4, r4, r6
 8000c76:	10a4      	asrs	r4, r4, #2
 8000c78:	42a5      	cmp	r5, r4
 8000c7a:	d109      	bne.n	8000c90 <__libc_init_array+0x24>
 8000c7c:	f000 f81a 	bl	8000cb4 <_init>
 8000c80:	2500      	movs	r5, #0
 8000c82:	4e0a      	ldr	r6, [pc, #40]	; (8000cac <__libc_init_array+0x40>)
 8000c84:	4c0a      	ldr	r4, [pc, #40]	; (8000cb0 <__libc_init_array+0x44>)
 8000c86:	1ba4      	subs	r4, r4, r6
 8000c88:	10a4      	asrs	r4, r4, #2
 8000c8a:	42a5      	cmp	r5, r4
 8000c8c:	d105      	bne.n	8000c9a <__libc_init_array+0x2e>
 8000c8e:	bd70      	pop	{r4, r5, r6, pc}
 8000c90:	f856 3025 	ldr.w	r3, [r6, r5, lsl #2]
 8000c94:	4798      	blx	r3
 8000c96:	3501      	adds	r5, #1
 8000c98:	e7ee      	b.n	8000c78 <__libc_init_array+0xc>
 8000c9a:	f856 3025 	ldr.w	r3, [r6, r5, lsl #2]
 8000c9e:	4798      	blx	r3
 8000ca0:	3501      	adds	r5, #1
 8000ca2:	e7f2      	b.n	8000c8a <__libc_init_array+0x1e>
 8000ca4:	08000d14 	.word	0x08000d14
 8000ca8:	08000d14 	.word	0x08000d14
 8000cac:	08000d14 	.word	0x08000d14
 8000cb0:	08000d18 	.word	0x08000d18

08000cb4 <_init>:
 8000cb4:	b5f8      	push	{r3, r4, r5, r6, r7, lr}
 8000cb6:	bf00      	nop
 8000cb8:	bcf8      	pop	{r3, r4, r5, r6, r7}
 8000cba:	bc08      	pop	{r3}
 8000cbc:	469e      	mov	lr, r3
 8000cbe:	4770      	bx	lr

08000cc0 <_fini>:
 8000cc0:	b5f8      	push	{r3, r4, r5, r6, r7, lr}
 8000cc2:	bf00      	nop
 8000cc4:	bcf8      	pop	{r3, r4, r5, r6, r7}
 8000cc6:	bc08      	pop	{r3}
 8000cc8:	469e      	mov	lr, r3
 8000cca:	4770      	bx	lr
